
apt:     file format elf64-littleaarch64


Disassembly of section .text:

0000000000008234 <.text>:
    8234:	d503249f 	bti	j
    8238:	d280001d 	mov	x29, #0x0                   	// #0
    823c:	d280001e 	mov	x30, #0x0                   	// #0
    8240:	910003e0 	mov	x0, sp
    8244:	14000001 	b	8248 <__libc_init@plt-0x4948>
    8248:	d503233f 	paciasp
    824c:	d10103ff 	sub	sp, sp, #0x40
    8250:	a9037bfd 	stp	x29, x30, [sp, #48]
    8254:	9100c3fd 	add	x29, sp, #0x30
    8258:	b0000048 	adrp	x8, 11000 <fwrite@plt+0x4110>
    825c:	b0000049 	adrp	x9, 11000 <fwrite@plt+0x4110>
    8260:	6f00e400 	movi	v0.2d, #0x0
    8264:	f942b508 	ldr	x8, [x8, #1384]
    8268:	f942b929 	ldr	x9, [x9, #1392]
    826c:	cb080128 	sub	x8, x9, x8
    8270:	f100051f 	cmp	x8, #0x1
    8274:	ad0083e0 	stp	q0, q0, [sp, #16]
    8278:	3d8003e0 	str	q0, [sp]
    827c:	5400008b 	b.lt	828c <__libc_init@plt-0x4904>  // b.tstop
    8280:	d503201f 	nop
    8284:	1006a7e8 	adr	x8, 15780 <fwrite@plt+0x8890>
    8288:	f9000be8 	str	x8, [sp, #16]
    828c:	b0000042 	adrp	x2, 11000 <fwrite@plt+0x4110>
    8290:	910003e3 	mov	x3, sp
    8294:	aa1f03e1 	mov	x1, xzr
    8298:	f942bc42 	ldr	x2, [x2, #1400]
    829c:	9400123d 	bl	cb90 <__libc_init@plt>
    82a0:	d503245f 	bti	c
    82a4:	b4000060 	cbz	x0, 82b0 <__libc_init@plt-0x48e0>
    82a8:	aa0003f0 	mov	x16, x0
    82ac:	d61f0200 	br	x16
    82b0:	d65f03c0 	ret
    82b4:	d503245f 	bti	c
    82b8:	aa0003e1 	mov	x1, x0
    82bc:	d503201f 	nop
    82c0:	10ffff00 	adr	x0, 82a0 <__libc_init@plt-0x48f0>
    82c4:	d503201f 	nop
    82c8:	1006a782 	adr	x2, 157b8 <fwrite@plt+0x88c8>
    82cc:	14001235 	b	cba0 <__cxa_atexit@plt>
    82d0:	d503245f 	bti	c
    82d4:	d503201f 	nop
    82d8:	1006a703 	adr	x3, 157b8 <fwrite@plt+0x88c8>
    82dc:	14001235 	b	cbb0 <__register_atfork@plt>
    82e0:	d503233f 	paciasp
    82e4:	a9be7bfd 	stp	x29, x30, [sp, #-32]!
    82e8:	a9014ff4 	stp	x20, x19, [sp, #16]
    82ec:	910003fd 	mov	x29, sp
    82f0:	b0000053 	adrp	x19, 11000 <fwrite@plt+0x4110>
    82f4:	b0000048 	adrp	x8, 11000 <fwrite@plt+0x4110>
    82f8:	f942b673 	ldr	x19, [x19, #1384]
    82fc:	f942b908 	ldr	x8, [x8, #1392]
    8300:	eb130108 	subs	x8, x8, x19
    8304:	54000100 	b.eq	8324 <__libc_init@plt-0x486c>  // b.none
    8308:	9343fd08 	asr	x8, x8, #3
    830c:	8b080e69 	add	x9, x19, x8, lsl #3
    8310:	d1000514 	sub	x20, x8, #0x1
    8314:	f85f8129 	ldur	x9, [x9, #-8]
    8318:	d63f0120 	blr	x9
    831c:	aa1403e8 	mov	x8, x20
    8320:	b5ffff74 	cbnz	x20, 830c <__libc_init@plt-0x4884>
    8324:	a9414ff4 	ldp	x20, x19, [sp, #16]
    8328:	a8c27bfd 	ldp	x29, x30, [sp], #32
    832c:	d50323bf 	autiasp
    8330:	d65f03c0 	ret
    8334:	d10203ff 	sub	sp, sp, #0x80
    8338:	a9047bfd 	stp	x29, x30, [sp, #64]
    833c:	f9002bf7 	str	x23, [sp, #80]
    8340:	a90657f6 	stp	x22, x21, [sp, #96]
    8344:	a9074ff4 	stp	x20, x19, [sp, #112]
    8348:	910103fd 	add	x29, sp, #0x40
    834c:	d53bd056 	mrs	x22, tpidr_el0
    8350:	aa0103f3 	mov	x19, x1
    8354:	2a0003f4 	mov	w20, w0
    8358:	f94016c8 	ldr	x8, [x22, #40]
    835c:	f81f83a8 	stur	x8, [x29, #-8]
    8360:	94001218 	bl	cbc0 <getuid@plt>
    8364:	340008a0 	cbz	w0, 8478 <__libc_init@plt-0x4718>
    8368:	910083e0 	add	x0, sp, #0x20
    836c:	94001219 	bl	cbd0 <_ZN11CommandLineC1Ev@plt>
    8370:	b0000055 	adrp	x21, 11000 <fwrite@plt+0x4110>
    8374:	b0000043 	adrp	x3, 11000 <fwrite@plt+0x4110>
    8378:	90000006 	adrp	x6, 8000 <__libc_init@plt-0x4b90>
    837c:	9115e0c6 	add	x6, x6, #0x578
    8380:	f942c2b5 	ldr	x21, [x21, #1408]
    8384:	f942c463 	ldr	x3, [x3, #1416]
    8388:	90000007 	adrp	x7, 8000 <__libc_init@plt-0x4b90>
    838c:	911690e7 	add	x7, x7, #0x5a4
    8390:	910023e8 	add	x8, sp, #0x8
    8394:	910083e0 	add	x0, sp, #0x20
    8398:	2a1f03e1 	mov	w1, wzr
    839c:	aa1503e2 	mov	x2, x21
    83a0:	2a1403e4 	mov	w4, w20
    83a4:	aa1303e5 	mov	x5, x19
    83a8:	9400120e 	bl	cbe0 <_Z16ParseCommandLineR11CommandLine7APT_CMDPKP13ConfigurationPP9pkgSystemiPPKcPFbS0_EPFNSt6__ndk16vectorI19aptDispatchWithHelpNSE_9allocatorISG_EEEEvE@plt>
    83ac:	f94002a0 	ldr	x0, [x21]
    83b0:	b90007ff 	str	wzr, [sp, #4]
    83b4:	d0ffffc1 	adrp	x1, 2000 <__libc_init@plt-0xab90>
    83b8:	91361021 	add	x1, x1, #0xd84
    83bc:	910013e2 	add	x2, sp, #0x4
    83c0:	9400120c 	bl	cbf0 <_ZNK13Configuration5FindIEPKcRKi@plt>
    83c4:	7100081f 	cmp	w0, #0x2
    83c8:	540001a1 	b.ne	83fc <__libc_init@plt-0x4794>  // b.any
    83cc:	f94002a0 	ldr	x0, [x21]
    83d0:	d0ffffc1 	adrp	x1, 2000 <__libc_init@plt-0xab90>
    83d4:	9137fc21 	add	x1, x1, #0xdff
    83d8:	52800022 	mov	w2, #0x1                   	// #1
    83dc:	52800037 	mov	w23, #0x1                   	// #1
    83e0:	94001208 	bl	cc00 <_ZN13Configuration6CndSetEPKci@plt>
    83e4:	f94002a0 	ldr	x0, [x21]
    83e8:	b90007f7 	str	w23, [sp, #4]
    83ec:	d0ffffc1 	adrp	x1, 2000 <__libc_init@plt-0xab90>
    83f0:	91361021 	add	x1, x1, #0xd84
    83f4:	910013e2 	add	x2, sp, #0x4
    83f8:	94001206 	bl	cc10 <_ZN13Configuration3SetEPKcRKi@plt>
    83fc:	94001209 	bl	cc20 <_Z11InitSignalsv@plt>
    8400:	b0000048 	adrp	x8, 11000 <fwrite@plt+0x4110>
    8404:	f942c908 	ldr	x8, [x8, #1424]
    8408:	f9400109 	ldr	x9, [x8]
    840c:	f85e8129 	ldur	x9, [x9, #-24]
    8410:	8b090108 	add	x8, x8, x9
    8414:	f9401500 	ldr	x0, [x8, #40]
    8418:	94001206 	bl	cc30 <_Z10InitOutputPNSt6__ndk115basic_streambufIcNS_11char_traitsIcEEEE@plt>
    841c:	2a1403e0 	mov	w0, w20
    8420:	aa1303e1 	mov	x1, x19
    8424:	94001207 	bl	cc40 <_Z21CheckIfCalledByScriptiPPKc@plt>
    8428:	910083e0 	add	x0, sp, #0x20
    842c:	94001209 	bl	cc50 <_Z19CheckIfSimulateModeR11CommandLine@plt>
    8430:	910083e0 	add	x0, sp, #0x20
    8434:	910023e1 	add	x1, sp, #0x8
    8438:	9400120a 	bl	cc60 <_Z19DispatchCommandLineR11CommandLineRKNSt6__ndk16vectorINS_8DispatchENS1_9allocatorIS3_EEEE@plt>
    843c:	2a0003e8 	mov	w8, w0
    8440:	f94007e0 	ldr	x0, [sp, #8]
    8444:	12003d13 	and	w19, w8, #0xffff
    8448:	b40000a0 	cbz	x0, 845c <__libc_init@plt-0x4734>
    844c:	f9400fe8 	ldr	x8, [sp, #24]
    8450:	f9000be0 	str	x0, [sp, #16]
    8454:	cb000101 	sub	x1, x8, x0
    8458:	94001206 	bl	cc70 <_ZdlPvm@plt>
    845c:	910083e0 	add	x0, sp, #0x20
    8460:	94001208 	bl	cc80 <_ZN11CommandLineD1Ev@plt>
    8464:	f94016c8 	ldr	x8, [x22, #40]
    8468:	f85f83a9 	ldur	x9, [x29, #-8]
    846c:	eb09011f 	cmp	x8, x9
    8470:	54000460 	b.eq	84fc <__libc_init@plt-0x4694>  // b.none
    8474:	14000040 	b	8574 <__libc_init@plt-0x461c>
    8478:	b0000040 	adrp	x0, 11000 <fwrite@plt+0x4110>
    847c:	d503201f 	nop
    8480:	50fd5c01 	adr	x1, 3002 <__libc_init@plt-0x9b8e>
    8484:	f942c800 	ldr	x0, [x0, #1424]
    8488:	52800ac2 	mov	w2, #0x56                  	// #86
    848c:	9400018a 	bl	8ab4 <__libc_init@plt-0x40dc>
    8490:	f9400008 	ldr	x8, [x0]
    8494:	aa0003f3 	mov	x19, x0
    8498:	f85e8109 	ldur	x9, [x8, #-24]
    849c:	910083e8 	add	x8, sp, #0x20
    84a0:	8b090000 	add	x0, x0, x9
    84a4:	940011fb 	bl	cc90 <_ZNKSt6__ndk18ios_base6getlocEv@plt>
    84a8:	b0000041 	adrp	x1, 11000 <fwrite@plt+0x4110>
    84ac:	910083e0 	add	x0, sp, #0x20
    84b0:	f942cc21 	ldr	x1, [x1, #1432]
    84b4:	940011fb 	bl	cca0 <_ZNKSt6__ndk16locale9use_facetERNS0_2idE@plt>
    84b8:	f9400008 	ldr	x8, [x0]
    84bc:	f9401d08 	ldr	x8, [x8, #56]
    84c0:	52800141 	mov	w1, #0xa                   	// #10
    84c4:	d63f0100 	blr	x8
    84c8:	2a0003f4 	mov	w20, w0
    84cc:	910083e0 	add	x0, sp, #0x20
    84d0:	940011f8 	bl	ccb0 <_ZNSt6__ndk16localeD1Ev@plt>
    84d4:	aa1303e0 	mov	x0, x19
    84d8:	2a1403e1 	mov	w1, w20
    84dc:	940011f9 	bl	ccc0 <_ZNSt6__ndk113basic_ostreamIcNS_11char_traitsIcEEE3putEc@plt>
    84e0:	aa1303e0 	mov	x0, x19
    84e4:	940011fb 	bl	ccd0 <_ZNSt6__ndk113basic_ostreamIcNS_11char_traitsIcEEE5flushEv@plt>
    84e8:	52800033 	mov	w19, #0x1                   	// #1
    84ec:	f94016c8 	ldr	x8, [x22, #40]
    84f0:	f85f83a9 	ldur	x9, [x29, #-8]
    84f4:	eb09011f 	cmp	x8, x9
    84f8:	540003e1 	b.ne	8574 <__libc_init@plt-0x461c>  // b.any
    84fc:	2a1303e0 	mov	w0, w19
    8500:	a9474ff4 	ldp	x20, x19, [sp, #112]
    8504:	f9402bf7 	ldr	x23, [sp, #80]
    8508:	a94657f6 	ldp	x22, x21, [sp, #96]
    850c:	a9447bfd 	ldp	x29, x30, [sp, #64]
    8510:	910203ff 	add	sp, sp, #0x80
    8514:	d65f03c0 	ret
    8518:	14000008 	b	8538 <__libc_init@plt-0x4658>
    851c:	14000007 	b	8538 <__libc_init@plt-0x4658>
    8520:	aa0003f3 	mov	x19, x0
    8524:	1400000c 	b	8554 <__libc_init@plt-0x463c>
    8528:	aa0003f3 	mov	x19, x0
    852c:	910083e0 	add	x0, sp, #0x20
    8530:	940011e0 	bl	ccb0 <_ZNSt6__ndk16localeD1Ev@plt>
    8534:	1400000a 	b	855c <__libc_init@plt-0x4634>
    8538:	aa0003f3 	mov	x19, x0
    853c:	f94007e0 	ldr	x0, [sp, #8]
    8540:	b40000a0 	cbz	x0, 8554 <__libc_init@plt-0x463c>
    8544:	f9400fe8 	ldr	x8, [sp, #24]
    8548:	f9000be0 	str	x0, [sp, #16]
    854c:	cb000101 	sub	x1, x8, x0
    8550:	940011c8 	bl	cc70 <_ZdlPvm@plt>
    8554:	910083e0 	add	x0, sp, #0x20
    8558:	940011ca 	bl	cc80 <_ZN11CommandLineD1Ev@plt>
    855c:	f94016c8 	ldr	x8, [x22, #40]
    8560:	f85f83a9 	ldur	x9, [x29, #-8]
    8564:	eb09011f 	cmp	x8, x9
    8568:	54000061 	b.ne	8574 <__libc_init@plt-0x461c>  // b.any
    856c:	aa1303e0 	mov	x0, x19
    8570:	940002ce 	bl	90a8 <__libc_init@plt-0x3ae8>
    8574:	940011db 	bl	cce0 <__stack_chk_fail@plt>
    8578:	a9bf7bfd 	stp	x29, x30, [sp, #-16]!
    857c:	910003fd 	mov	x29, sp
    8580:	b0000040 	adrp	x0, 11000 <fwrite@plt+0x4110>
    8584:	d0ffffc1 	adrp	x1, 2000 <__libc_init@plt-0xab90>
    8588:	9125ac21 	add	x1, x1, #0x96b
    858c:	f942c800 	ldr	x0, [x0, #1424]
    8590:	52802862 	mov	w2, #0x143                 	// #323
    8594:	94000148 	bl	8ab4 <__libc_init@plt-0x40dc>
    8598:	52800020 	mov	w0, #0x1                   	// #1
    859c:	a8c17bfd 	ldp	x29, x30, [sp], #16
    85a0:	d65f03c0 	ret
    85a4:	a9be7bfd 	stp	x29, x30, [sp, #-32]!
    85a8:	a9014ff4 	stp	x20, x19, [sp, #16]
    85ac:	910003fd 	mov	x29, sp
    85b0:	52807800 	mov	w0, #0x3c0                 	// #960
    85b4:	aa0803f3 	mov	x19, x8
    85b8:	a9007d1f 	stp	xzr, xzr, [x8]
    85bc:	f900091f 	str	xzr, [x8, #16]
    85c0:	940011cc 	bl	ccf0 <_Znwm@plt>
    85c4:	910f0014 	add	x20, x0, #0x3c0
    85c8:	d503201f 	nop
    85cc:	100449a1 	adr	x1, 10f00 <fwrite@plt+0x4010>
    85d0:	52807802 	mov	w2, #0x3c0                 	// #960
    85d4:	f9000260 	str	x0, [x19]
    85d8:	f9000a74 	str	x20, [x19, #16]
    85dc:	940011c9 	bl	cd00 <memcpy@plt>
    85e0:	f9000674 	str	x20, [x19, #8]
    85e4:	a9414ff4 	ldp	x20, x19, [sp, #16]
    85e8:	a8c27bfd 	ldp	x29, x30, [sp], #32
    85ec:	d65f03c0 	ret
    85f0:	d10443ff 	sub	sp, sp, #0x110
    85f4:	a90c7bfd 	stp	x29, x30, [sp, #192]
    85f8:	a90d67fc 	stp	x28, x25, [sp, #208]
    85fc:	a90e5ff8 	stp	x24, x23, [sp, #224]
    8600:	a90f57f6 	stp	x22, x21, [sp, #240]
    8604:	a9104ff4 	stp	x20, x19, [sp, #256]
    8608:	910303fd 	add	x29, sp, #0xc0
    860c:	d53bd055 	mrs	x21, tpidr_el0
    8610:	aa0003f3 	mov	x19, x0
    8614:	910183e0 	add	x0, sp, #0x60
    8618:	f94016a8 	ldr	x8, [x21, #40]
    861c:	f81f83a8 	stur	x8, [x29, #-8]
    8620:	940011bc 	bl	cd10 <_ZN12pkgCacheFileC1Ev@plt>
    8624:	f9400a74 	ldr	x20, [x19, #16]
    8628:	d10083a0 	sub	x0, x29, #0x20
    862c:	52800021 	mov	w1, #0x1                   	// #1
    8630:	528003c2 	mov	w2, #0x1e                  	// #30
    8634:	940011bb 	bl	cd20 <_ZN3APT14CacheSetHelperC1EbN11GlobalError7MsgTypeE@plt>
    8638:	9100c3e0 	add	x0, sp, #0x30
    863c:	2a1f03e1 	mov	w1, wzr
    8640:	9100c3f6 	add	x22, sp, #0x30
    8644:	940011bb 	bl	cd30 <_ZN3APT25PackageContainerInterfaceC2ENS_14CacheSetHelper11PkgSelectorE@plt>
    8648:	910062d6 	add	x22, x22, #0x18
    864c:	f85e03a8 	ldur	x8, [x29, #-32]
    8650:	f9002fff 	str	xzr, [sp, #88]
    8654:	a904dbf6 	stp	x22, x22, [sp, #72]
    8658:	b0000057 	adrp	x23, 11000 <fwrite@plt+0x4110>
    865c:	910b42f7 	add	x23, x23, #0x2d0
    8660:	f9400d08 	ldr	x8, [x8, #24]
    8664:	f9001bf7 	str	x23, [sp, #48]
    8668:	d10083a0 	sub	x0, x29, #0x20
    866c:	9100c3e1 	add	x1, sp, #0x30
    8670:	910183e2 	add	x2, sp, #0x60
    8674:	91002283 	add	x3, x20, #0x8
    8678:	d63f0100 	blr	x8
    867c:	d10083a0 	sub	x0, x29, #0x20
    8680:	940011b0 	bl	cd40 <_ZN3APT14CacheSetHelperD1Ev@plt>
    8684:	f9400a68 	ldr	x8, [x19, #16]
    8688:	d0ffffc1 	adrp	x1, 2000 <__libc_init@plt-0xab90>
    868c:	910a3c21 	add	x1, x1, #0x28f
    8690:	f9400100 	ldr	x0, [x8]
    8694:	940011af 	bl	cd50 <strcmp@plt>
    8698:	f9402fe8 	ldr	x8, [sp, #88]
    869c:	f100051f 	cmp	x8, #0x1
    86a0:	540005a1 	b.ne	8754 <__libc_init@plt-0x443c>  // b.any
    86a4:	2a0003f3 	mov	w19, w0
    86a8:	910183e0 	add	x0, sp, #0x60
    86ac:	aa1f03e1 	mov	x1, xzr
    86b0:	940011ac 	bl	cd60 <_ZN12pkgCacheFile13BuildDepCacheEP10OpProgress@plt>
    86b4:	36000560 	tbz	w0, #0, 8760 <__libc_init@plt-0x4430>
    86b8:	f9402bf8 	ldr	x24, [sp, #80]
    86bc:	eb16031f 	cmp	x24, x22
    86c0:	540005a0 	b.eq	8774 <__libc_init@plt-0x441c>  // b.none
    86c4:	b0000054 	adrp	x20, 11000 <fwrite@plt+0x4110>
    86c8:	910063e8 	add	x8, sp, #0x18
    86cc:	f942ca94 	ldr	x20, [x20, #1424]
    86d0:	b2400119 	orr	x25, x8, #0x1
    86d4:	14000004 	b	86e4 <__libc_init@plt-0x44ac>
    86d8:	f9400718 	ldr	x24, [x24, #8]
    86dc:	eb16031f 	cmp	x24, x22
    86e0:	540004a0 	b.eq	8774 <__libc_init@plt-0x441c>  // b.none
    86e4:	3dc00700 	ldr	q0, [x24, #16]
    86e8:	f9401308 	ldr	x8, [x24, #32]
    86ec:	7100027f 	cmp	w19, #0x0
    86f0:	f94047e0 	ldr	x0, [sp, #136]
    86f4:	1a9f17e2 	cset	w2, eq	// eq = none
    86f8:	3c9e03a0 	stur	q0, [x29, #-32]
    86fc:	f81f03a8 	stur	x8, [x29, #-16]
    8700:	3d8003e0 	str	q0, [sp]
    8704:	f9000be8 	str	x8, [sp, #16]
    8708:	910063e8 	add	x8, sp, #0x18
    870c:	910003e1 	mov	x1, sp
    8710:	94001198 	bl	cd70 <_ZN3APT6Solver16DependencySolver14InternalCliWhyER11pkgDepCacheN8pkgCache11PkgIteratorEb@plt>
    8714:	394063e8 	ldrb	w8, [sp, #24]
    8718:	a94227ea 	ldp	x10, x9, [sp, #32]
    871c:	d341fd0b 	lsr	x11, x8, #1
    8720:	7200011f 	tst	w8, #0x1
    8724:	9a890321 	csel	x1, x25, x9, eq	// eq = none
    8728:	9a8a0162 	csel	x2, x11, x10, eq	// eq = none
    872c:	aa1403e0 	mov	x0, x20
    8730:	940000e1 	bl	8ab4 <__libc_init@plt-0x40dc>
    8734:	94001167 	bl	ccd0 <_ZNSt6__ndk113basic_ostreamIcNS_11char_traitsIcEEE5flushEv@plt>
    8738:	394063e8 	ldrb	w8, [sp, #24]
    873c:	3607fce8 	tbz	w8, #0, 86d8 <__libc_init@plt-0x44b8>
    8740:	f9400fe8 	ldr	x8, [sp, #24]
    8744:	f94017e0 	ldr	x0, [sp, #40]
    8748:	927ff901 	and	x1, x8, #0xfffffffffffffffe
    874c:	94001149 	bl	cc70 <_ZdlPvm@plt>
    8750:	17ffffe2 	b	86d8 <__libc_init@plt-0x44b8>
    8754:	9400118b 	bl	cd80 <_Z12_GetErrorObjv@plt>
    8758:	39406008 	ldrb	w8, [x0, #24]
    875c:	360001a8 	tbz	w8, #0, 8790 <__libc_init@plt-0x4400>
    8760:	2a1f03f3 	mov	w19, wzr
    8764:	f9402fe8 	ldr	x8, [sp, #88]
    8768:	f9001bf7 	str	x23, [sp, #48]
    876c:	b5000228 	cbnz	x8, 87b0 <__libc_init@plt-0x43e0>
    8770:	1400001e 	b	87e8 <__libc_init@plt-0x43a8>
    8774:	94001183 	bl	cd80 <_Z12_GetErrorObjv@plt>
    8778:	39406008 	ldrb	w8, [x0, #24]
    877c:	52000113 	eor	w19, w8, #0x1
    8780:	f9402fe8 	ldr	x8, [sp, #88]
    8784:	f9001bf7 	str	x23, [sp, #48]
    8788:	b5000148 	cbnz	x8, 87b0 <__libc_init@plt-0x43e0>
    878c:	14000017 	b	87e8 <__libc_init@plt-0x43a8>
    8790:	9400117c 	bl	cd80 <_Z12_GetErrorObjv@plt>
    8794:	d0ffffc1 	adrp	x1, 2000 <__libc_init@plt-0xab90>
    8798:	9132c821 	add	x1, x1, #0xcb2
    879c:	9400117d 	bl	cd90 <_ZN11GlobalError5ErrorEPKcz@plt>
    87a0:	2a0003f3 	mov	w19, w0
    87a4:	f9402fe8 	ldr	x8, [sp, #88]
    87a8:	f9001bf7 	str	x23, [sp, #48]
    87ac:	b40001e8 	cbz	x8, 87e8 <__libc_init@plt-0x43a8>
    87b0:	a94483e8 	ldp	x8, x0, [sp, #72]
    87b4:	f9400508 	ldr	x8, [x8, #8]
    87b8:	f9400009 	ldr	x9, [x0]
    87bc:	eb16001f 	cmp	x0, x22
    87c0:	f9000528 	str	x8, [x9, #8]
    87c4:	f9000109 	str	x9, [x8]
    87c8:	f9002fff 	str	xzr, [sp, #88]
    87cc:	540000e0 	b.eq	87e8 <__libc_init@plt-0x43a8>  // b.none
    87d0:	f9400414 	ldr	x20, [x0, #8]
    87d4:	52800501 	mov	w1, #0x28                  	// #40
    87d8:	94001126 	bl	cc70 <_ZdlPvm@plt>
    87dc:	eb16029f 	cmp	x20, x22
    87e0:	aa1403e0 	mov	x0, x20
    87e4:	54ffff61 	b.ne	87d0 <__libc_init@plt-0x43c0>  // b.any
    87e8:	9100c3e0 	add	x0, sp, #0x30
    87ec:	9400116d 	bl	cda0 <_ZN3APT25PackageContainerInterfaceD2Ev@plt>
    87f0:	910183e0 	add	x0, sp, #0x60
    87f4:	9400116f 	bl	cdb0 <_ZN12pkgCacheFileD1Ev@plt>
    87f8:	f94016a8 	ldr	x8, [x21, #40]
    87fc:	f85f83a9 	ldur	x9, [x29, #-8]
    8800:	eb09011f 	cmp	x8, x9
    8804:	540004e1 	b.ne	88a0 <__libc_init@plt-0x42f0>  // b.any
    8808:	12000260 	and	w0, w19, #0x1
    880c:	a9504ff4 	ldp	x20, x19, [sp, #256]
    8810:	a94f57f6 	ldp	x22, x21, [sp, #240]
    8814:	a94e5ff8 	ldp	x24, x23, [sp, #224]
    8818:	a94d67fc 	ldp	x28, x25, [sp, #208]
    881c:	a94c7bfd 	ldp	x29, x30, [sp, #192]
    8820:	910443ff 	add	sp, sp, #0x110
    8824:	d65f03c0 	ret
    8828:	aa0003f3 	mov	x19, x0
    882c:	9100c3e0 	add	x0, sp, #0x30
    8830:	9400001f 	bl	88ac <__libc_init@plt-0x42e4>
    8834:	14000002 	b	883c <__libc_init@plt-0x4354>
    8838:	aa0003f3 	mov	x19, x0
    883c:	d10083a0 	sub	x0, x29, #0x20
    8840:	94001140 	bl	cd40 <_ZN3APT14CacheSetHelperD1Ev@plt>
    8844:	1400000f 	b	8880 <__libc_init@plt-0x4310>
    8848:	aa0003f3 	mov	x19, x0
    884c:	1400000d 	b	8880 <__libc_init@plt-0x4310>
    8850:	14000001 	b	8854 <__libc_init@plt-0x433c>
    8854:	aa0003f3 	mov	x19, x0
    8858:	14000008 	b	8878 <__libc_init@plt-0x4318>
    885c:	394063e8 	ldrb	w8, [sp, #24]
    8860:	aa0003f3 	mov	x19, x0
    8864:	360000a8 	tbz	w8, #0, 8878 <__libc_init@plt-0x4318>
    8868:	f9400fe8 	ldr	x8, [sp, #24]
    886c:	f94017e0 	ldr	x0, [sp, #40]
    8870:	927ff901 	and	x1, x8, #0xfffffffffffffffe
    8874:	940010ff 	bl	cc70 <_ZdlPvm@plt>
    8878:	9100c3e0 	add	x0, sp, #0x30
    887c:	9400000c 	bl	88ac <__libc_init@plt-0x42e4>
    8880:	910183e0 	add	x0, sp, #0x60
    8884:	9400114b 	bl	cdb0 <_ZN12pkgCacheFileD1Ev@plt>
    8888:	f94016a8 	ldr	x8, [x21, #40]
    888c:	f85f83a9 	ldur	x9, [x29, #-8]
    8890:	eb09011f 	cmp	x8, x9
    8894:	54000061 	b.ne	88a0 <__libc_init@plt-0x42f0>  // b.any
    8898:	aa1303e0 	mov	x0, x19
    889c:	94000203 	bl	90a8 <__libc_init@plt-0x3ae8>
    88a0:	94001110 	bl	cce0 <__stack_chk_fail@plt>
    88a4:	f9401400 	ldr	x0, [x0, #40]
    88a8:	d65f03c0 	ret
    88ac:	a9bd7bfd 	stp	x29, x30, [sp, #-48]!
    88b0:	f9000bf5 	str	x21, [sp, #16]
    88b4:	a9024ff4 	stp	x20, x19, [sp, #32]
    88b8:	910003fd 	mov	x29, sp
    88bc:	f9401408 	ldr	x8, [x0, #40]
    88c0:	aa0003f3 	mov	x19, x0
    88c4:	b0000049 	adrp	x9, 11000 <fwrite@plt+0x4110>
    88c8:	910b4129 	add	x9, x9, #0x2d0
    88cc:	f9000009 	str	x9, [x0]
    88d0:	b4000208 	cbz	x8, 8910 <__libc_init@plt-0x4280>
    88d4:	a9418268 	ldp	x8, x0, [x19, #24]
    88d8:	91006274 	add	x20, x19, #0x18
    88dc:	f900167f 	str	xzr, [x19, #40]
    88e0:	f9400508 	ldr	x8, [x8, #8]
    88e4:	f9400009 	ldr	x9, [x0]
    88e8:	eb14001f 	cmp	x0, x20
    88ec:	f9000528 	str	x8, [x9, #8]
    88f0:	f9000109 	str	x9, [x8]
    88f4:	540000e0 	b.eq	8910 <__libc_init@plt-0x4280>  // b.none
    88f8:	f9400415 	ldr	x21, [x0, #8]
    88fc:	52800501 	mov	w1, #0x28                  	// #40
    8900:	940010dc 	bl	cc70 <_ZdlPvm@plt>
    8904:	eb1402bf 	cmp	x21, x20
    8908:	aa1503e0 	mov	x0, x21
    890c:	54ffff61 	b.ne	88f8 <__libc_init@plt-0x4298>  // b.any
    8910:	aa1303e0 	mov	x0, x19
    8914:	a9424ff4 	ldp	x20, x19, [sp, #32]
    8918:	f9400bf5 	ldr	x21, [sp, #16]
    891c:	a8c37bfd 	ldp	x29, x30, [sp], #48
    8920:	14001120 	b	cda0 <_ZN3APT25PackageContainerInterfaceD2Ev@plt>
    8924:	f9400428 	ldr	x8, [x1, #8]
    8928:	b4000368 	cbz	x8, 8994 <__libc_init@plt-0x41fc>
    892c:	a9be7bfd 	stp	x29, x30, [sp, #-32]!
    8930:	a9014ff4 	stp	x20, x19, [sp, #16]
    8934:	910003fd 	mov	x29, sp
    8938:	f9400029 	ldr	x9, [x1]
    893c:	f9401d08 	ldr	x8, [x8, #56]
    8940:	aa0103f4 	mov	x20, x1
    8944:	eb08013f 	cmp	x9, x8
    8948:	540002a0 	b.eq	899c <__libc_init@plt-0x41f4>  // b.none
    894c:	aa0003f3 	mov	x19, x0
    8950:	52800500 	mov	w0, #0x28                  	// #40
    8954:	940010e7 	bl	ccf0 <_Znwm@plt>
    8958:	f9400a88 	ldr	x8, [x20, #16]
    895c:	3dc00280 	ldr	q0, [x20]
    8960:	f8418e69 	ldr	x9, [x19, #24]!
    8964:	f9000260 	str	x0, [x19]
    8968:	f9001008 	str	x8, [x0, #32]
    896c:	f9400a68 	ldr	x8, [x19, #16]
    8970:	3d800400 	str	q0, [x0, #16]
    8974:	a9004c09 	stp	x9, x19, [x0]
    8978:	91000508 	add	x8, x8, #0x1
    897c:	f9000520 	str	x0, [x9, #8]
    8980:	52800020 	mov	w0, #0x1                   	// #1
    8984:	f9000a68 	str	x8, [x19, #16]
    8988:	a9414ff4 	ldp	x20, x19, [sp, #16]
    898c:	a8c27bfd 	ldp	x29, x30, [sp], #32
    8990:	d65f03c0 	ret
    8994:	2a1f03e0 	mov	w0, wzr
    8998:	d65f03c0 	ret
    899c:	2a1f03e0 	mov	w0, wzr
    89a0:	a9414ff4 	ldp	x20, x19, [sp, #16]
    89a4:	a8c27bfd 	ldp	x29, x30, [sp], #32
    89a8:	d65f03c0 	ret
    89ac:	f9401408 	ldr	x8, [x0, #40]
    89b0:	f100011f 	cmp	x8, #0x0
    89b4:	1a9f17e0 	cset	w0, eq	// eq = none
    89b8:	d65f03c0 	ret
    89bc:	f9401408 	ldr	x8, [x0, #40]
    89c0:	b40002e8 	cbz	x8, 8a1c <__libc_init@plt-0x4174>
    89c4:	a9be7bfd 	stp	x29, x30, [sp, #-32]!
    89c8:	a9014ff4 	stp	x20, x19, [sp, #16]
    89cc:	910003fd 	mov	x29, sp
    89d0:	aa0003e8 	mov	x8, x0
    89d4:	f9401000 	ldr	x0, [x0, #32]
    89d8:	f9400d09 	ldr	x9, [x8, #24]
    89dc:	91006113 	add	x19, x8, #0x18
    89e0:	f900151f 	str	xzr, [x8, #40]
    89e4:	f940000a 	ldr	x10, [x0]
    89e8:	eb13001f 	cmp	x0, x19
    89ec:	f9400529 	ldr	x9, [x9, #8]
    89f0:	f9000549 	str	x9, [x10, #8]
    89f4:	f900012a 	str	x10, [x9]
    89f8:	540000e0 	b.eq	8a14 <__libc_init@plt-0x417c>  // b.none
    89fc:	f9400414 	ldr	x20, [x0, #8]
    8a00:	52800501 	mov	w1, #0x28                  	// #40
    8a04:	9400109b 	bl	cc70 <_ZdlPvm@plt>
    8a08:	eb13029f 	cmp	x20, x19
    8a0c:	aa1403e0 	mov	x0, x20
    8a10:	54ffff61 	b.ne	89fc <__libc_init@plt-0x4194>  // b.any
    8a14:	a9414ff4 	ldp	x20, x19, [sp, #16]
    8a18:	a8c27bfd 	ldp	x29, x30, [sp], #32
    8a1c:	d65f03c0 	ret
    8a20:	a9bd7bfd 	stp	x29, x30, [sp, #-48]!
    8a24:	f9000bf5 	str	x21, [sp, #16]
    8a28:	a9024ff4 	stp	x20, x19, [sp, #32]
    8a2c:	910003fd 	mov	x29, sp
    8a30:	f9401408 	ldr	x8, [x0, #40]
    8a34:	aa0003f3 	mov	x19, x0
    8a38:	b0000049 	adrp	x9, 11000 <fwrite@plt+0x4110>
    8a3c:	910b4129 	add	x9, x9, #0x2d0
    8a40:	f9000009 	str	x9, [x0]
    8a44:	b4000208 	cbz	x8, 8a84 <__libc_init@plt-0x410c>
    8a48:	a9418268 	ldp	x8, x0, [x19, #24]
    8a4c:	91006274 	add	x20, x19, #0x18
    8a50:	f900167f 	str	xzr, [x19, #40]
    8a54:	f9400508 	ldr	x8, [x8, #8]
    8a58:	f9400009 	ldr	x9, [x0]
    8a5c:	eb14001f 	cmp	x0, x20
    8a60:	f9000528 	str	x8, [x9, #8]
    8a64:	f9000109 	str	x9, [x8]
    8a68:	540000e0 	b.eq	8a84 <__libc_init@plt-0x410c>  // b.none
    8a6c:	f9400415 	ldr	x21, [x0, #8]
    8a70:	52800501 	mov	w1, #0x28                  	// #40
    8a74:	9400107f 	bl	cc70 <_ZdlPvm@plt>
    8a78:	eb1402bf 	cmp	x21, x20
    8a7c:	aa1503e0 	mov	x0, x21
    8a80:	54ffff61 	b.ne	8a6c <__libc_init@plt-0x4124>  // b.any
    8a84:	aa1303e0 	mov	x0, x19
    8a88:	940010c6 	bl	cda0 <_ZN3APT25PackageContainerInterfaceD2Ev@plt>
    8a8c:	aa1303e0 	mov	x0, x19
    8a90:	52800601 	mov	w1, #0x30                  	// #48
    8a94:	a9424ff4 	ldp	x20, x19, [sp, #32]
    8a98:	f9400bf5 	ldr	x21, [sp, #16]
    8a9c:	a8c37bfd 	ldp	x29, x30, [sp], #48
    8aa0:	14001074 	b	cc70 <_ZdlPvm@plt>
    8aa4:	a9bf7bfd 	stp	x29, x30, [sp, #-16]!
    8aa8:	910003fd 	mov	x29, sp
    8aac:	940010c5 	bl	cdc0 <__cxa_begin_catch@plt>
    8ab0:	940010c8 	bl	cdd0 <_ZSt9terminatev@plt>
    8ab4:	d101c3ff 	sub	sp, sp, #0x70
    8ab8:	a9027bfd 	stp	x29, x30, [sp, #32]
    8abc:	a90367fa 	stp	x26, x25, [sp, #48]
    8ac0:	a9045ff8 	stp	x24, x23, [sp, #64]
    8ac4:	a90557f6 	stp	x22, x21, [sp, #80]
    8ac8:	a9064ff4 	stp	x20, x19, [sp, #96]
    8acc:	910083fd 	add	x29, sp, #0x20
    8ad0:	d53bd058 	mrs	x24, tpidr_el0
    8ad4:	aa0203f5 	mov	x21, x2
    8ad8:	aa0103f4 	mov	x20, x1
    8adc:	f9401708 	ldr	x8, [x24, #40]
    8ae0:	aa0003f3 	mov	x19, x0
    8ae4:	f81f83a8 	stur	x8, [x29, #-8]
    8ae8:	910003e0 	mov	x0, sp
    8aec:	aa1303e1 	mov	x1, x19
    8af0:	940010bc 	bl	cde0 <_ZNSt6__ndk113basic_ostreamIcNS_11char_traitsIcEEE6sentryC1ERS3_@plt>
    8af4:	394003e8 	ldrb	w8, [sp]
    8af8:	7100051f 	cmp	w8, #0x1
    8afc:	54000561 	b.ne	8ba8 <__libc_init@plt-0x3fe8>  // b.any
    8b00:	f9400268 	ldr	x8, [x19]
    8b04:	f85e8108 	ldur	x8, [x8, #-24]
    8b08:	8b080264 	add	x4, x19, x8
    8b0c:	b9409085 	ldr	w5, [x4, #144]
    8b10:	f9401496 	ldr	x22, [x4, #40]
    8b14:	b9400899 	ldr	w25, [x4, #8]
    8b18:	310004bf 	cmn	w5, #0x1
    8b1c:	54000261 	b.ne	8b68 <__libc_init@plt-0x4028>  // b.any
    8b20:	910043e8 	add	x8, sp, #0x10
    8b24:	aa0403e0 	mov	x0, x4
    8b28:	aa0403fa 	mov	x26, x4
    8b2c:	94001059 	bl	cc90 <_ZNKSt6__ndk18ios_base6getlocEv@plt>
    8b30:	b0000041 	adrp	x1, 11000 <fwrite@plt+0x4110>
    8b34:	910043e0 	add	x0, sp, #0x10
    8b38:	f942cc21 	ldr	x1, [x1, #1432]
    8b3c:	94001059 	bl	cca0 <_ZNKSt6__ndk16locale9use_facetERNS0_2idE@plt>
    8b40:	f9400008 	ldr	x8, [x0]
    8b44:	f9401d08 	ldr	x8, [x8, #56]
    8b48:	52800401 	mov	w1, #0x20                  	// #32
    8b4c:	d63f0100 	blr	x8
    8b50:	2a0003f7 	mov	w23, w0
    8b54:	910043e0 	add	x0, sp, #0x10
    8b58:	94001056 	bl	ccb0 <_ZNSt6__ndk16localeD1Ev@plt>
    8b5c:	12001ee5 	and	w5, w23, #0xff
    8b60:	aa1a03e4 	mov	x4, x26
    8b64:	b9009345 	str	w5, [x26, #144]
    8b68:	52801608 	mov	w8, #0xb0                  	// #176
    8b6c:	8b150283 	add	x3, x20, x21
    8b70:	0a080328 	and	w8, w25, w8
    8b74:	7100811f 	cmp	w8, #0x20
    8b78:	9a940062 	csel	x2, x3, x20, eq	// eq = none
    8b7c:	aa1603e0 	mov	x0, x22
    8b80:	aa1403e1 	mov	x1, x20
    8b84:	94000036 	bl	8c5c <__libc_init@plt-0x3f34>
    8b88:	b5000100 	cbnz	x0, 8ba8 <__libc_init@plt-0x3fe8>
    8b8c:	f9400268 	ldr	x8, [x19]
    8b90:	528000a9 	mov	w9, #0x5                   	// #5
    8b94:	f85e8108 	ldur	x8, [x8, #-24]
    8b98:	8b080260 	add	x0, x19, x8
    8b9c:	b9402008 	ldr	w8, [x0, #32]
    8ba0:	2a090101 	orr	w1, w8, w9
    8ba4:	94001093 	bl	cdf0 <_ZNSt6__ndk18ios_base5clearEj@plt>
    8ba8:	910003e0 	mov	x0, sp
    8bac:	94001095 	bl	ce00 <_ZNSt6__ndk113basic_ostreamIcNS_11char_traitsIcEEE6sentryD1Ev@plt>
    8bb0:	f9401708 	ldr	x8, [x24, #40]
    8bb4:	f85f83a9 	ldur	x9, [x29, #-8]
    8bb8:	eb09011f 	cmp	x8, x9
    8bbc:	540003c1 	b.ne	8c34 <__libc_init@plt-0x3f5c>  // b.any
    8bc0:	aa1303e0 	mov	x0, x19
    8bc4:	a9464ff4 	ldp	x20, x19, [sp, #96]
    8bc8:	a94557f6 	ldp	x22, x21, [sp, #80]
    8bcc:	a9445ff8 	ldp	x24, x23, [sp, #64]
    8bd0:	a94367fa 	ldp	x26, x25, [sp, #48]
    8bd4:	a9427bfd 	ldp	x29, x30, [sp, #32]
    8bd8:	9101c3ff 	add	sp, sp, #0x70
    8bdc:	d65f03c0 	ret
    8be0:	14000005 	b	8bf4 <__libc_init@plt-0x3f9c>
    8be4:	aa0003f4 	mov	x20, x0
    8be8:	910043e0 	add	x0, sp, #0x10
    8bec:	94001031 	bl	ccb0 <_ZNSt6__ndk16localeD1Ev@plt>
    8bf0:	14000002 	b	8bf8 <__libc_init@plt-0x3f98>
    8bf4:	aa0003f4 	mov	x20, x0
    8bf8:	910003e0 	mov	x0, sp
    8bfc:	94001081 	bl	ce00 <_ZNSt6__ndk113basic_ostreamIcNS_11char_traitsIcEEE6sentryD1Ev@plt>
    8c00:	14000002 	b	8c08 <__libc_init@plt-0x3f88>
    8c04:	aa0003f4 	mov	x20, x0
    8c08:	aa1403e0 	mov	x0, x20
    8c0c:	9400106d 	bl	cdc0 <__cxa_begin_catch@plt>
    8c10:	f9400268 	ldr	x8, [x19]
    8c14:	f85e8108 	ldur	x8, [x8, #-24]
    8c18:	8b080260 	add	x0, x19, x8
    8c1c:	9400107d 	bl	ce10 <_ZNSt6__ndk18ios_base33__set_badbit_and_consider_rethrowEv@plt>
    8c20:	94001080 	bl	ce20 <__cxa_end_catch@plt>
    8c24:	f9401708 	ldr	x8, [x24, #40]
    8c28:	f85f83a9 	ldur	x9, [x29, #-8]
    8c2c:	eb09011f 	cmp	x8, x9
    8c30:	54fffc80 	b.eq	8bc0 <__libc_init@plt-0x3fd0>  // b.none
    8c34:	9400102b 	bl	cce0 <__stack_chk_fail@plt>
    8c38:	aa0003f3 	mov	x19, x0
    8c3c:	94001079 	bl	ce20 <__cxa_end_catch@plt>
    8c40:	f9401708 	ldr	x8, [x24, #40]
    8c44:	f85f83a9 	ldur	x9, [x29, #-8]
    8c48:	eb09011f 	cmp	x8, x9
    8c4c:	54ffff41 	b.ne	8c34 <__libc_init@plt-0x3f5c>  // b.any
    8c50:	aa1303e0 	mov	x0, x19
    8c54:	94000115 	bl	90a8 <__libc_init@plt-0x3ae8>
    8c58:	97ffff93 	bl	8aa4 <__libc_init@plt-0x40ec>
    8c5c:	d10203ff 	sub	sp, sp, #0x80
    8c60:	a9027bfd 	stp	x29, x30, [sp, #32]
    8c64:	f9001bfb 	str	x27, [sp, #48]
    8c68:	a90467fa 	stp	x26, x25, [sp, #64]
    8c6c:	a9055ff8 	stp	x24, x23, [sp, #80]
    8c70:	a90657f6 	stp	x22, x21, [sp, #96]
    8c74:	a9074ff4 	stp	x20, x19, [sp, #112]
    8c78:	910083fd 	add	x29, sp, #0x20
    8c7c:	d53bd05b 	mrs	x27, tpidr_el0
    8c80:	aa0003f3 	mov	x19, x0
    8c84:	f9401768 	ldr	x8, [x27, #40]
    8c88:	f81f83a8 	stur	x8, [x29, #-8]
    8c8c:	b4000ac0 	cbz	x0, 8de4 <__libc_init@plt-0x3dac>
    8c90:	f9400c88 	ldr	x8, [x4, #24]
    8c94:	cb010069 	sub	x9, x3, x1
    8c98:	cb010059 	sub	x25, x2, x1
    8c9c:	2a0503f8 	mov	w24, w5
    8ca0:	aa0403f4 	mov	x20, x4
    8ca4:	aa0303f6 	mov	x22, x3
    8ca8:	eb090108 	subs	x8, x8, x9
    8cac:	aa0203f5 	mov	x21, x2
    8cb0:	9a9fc117 	csel	x23, x8, xzr, gt
    8cb4:	f100073f 	cmp	x25, #0x1
    8cb8:	5400010b 	b.lt	8cd8 <__libc_init@plt-0x3eb8>  // b.tstop
    8cbc:	f9400268 	ldr	x8, [x19]
    8cc0:	aa1303e0 	mov	x0, x19
    8cc4:	aa1903e2 	mov	x2, x25
    8cc8:	f9403108 	ldr	x8, [x8, #96]
    8ccc:	d63f0100 	blr	x8
    8cd0:	eb19001f 	cmp	x0, x25
    8cd4:	540007a1 	b.ne	8dc8 <__libc_init@plt-0x3dc8>  // b.any
    8cd8:	f10006ff 	cmp	x23, #0x1
    8cdc:	5400054b 	b.lt	8d84 <__libc_init@plt-0x3e0c>  // b.tstop
    8ce0:	f1005eff 	cmp	x23, #0x17
    8ce4:	540000c2 	b.cs	8cfc <__libc_init@plt-0x3e94>  // b.hs, b.nlast
    8ce8:	531f7ae8 	lsl	w8, w23, #1
    8cec:	910003e9 	mov	x9, sp
    8cf0:	b2400139 	orr	x25, x9, #0x1
    8cf4:	390003e8 	strb	w8, [sp]
    8cf8:	1400000b 	b	8d24 <__libc_init@plt-0x3e6c>
    8cfc:	b2400ae8 	orr	x8, x23, #0x7
    8d00:	52800349 	mov	w9, #0x1a                  	// #26
    8d04:	f1005d1f 	cmp	x8, #0x17
    8d08:	9a88053a 	csinc	x26, x9, x8, eq	// eq = none
    8d0c:	aa1a03e0 	mov	x0, x26
    8d10:	94000ff8 	bl	ccf0 <_Znwm@plt>
    8d14:	b2400348 	orr	x8, x26, #0x1
    8d18:	aa0003f9 	mov	x25, x0
    8d1c:	a90083f7 	stp	x23, x0, [sp, #8]
    8d20:	f90003e8 	str	x8, [sp]
    8d24:	aa1903e0 	mov	x0, x25
    8d28:	2a1803e1 	mov	w1, w24
    8d2c:	aa1703e2 	mov	x2, x23
    8d30:	94001040 	bl	ce30 <memset@plt>
    8d34:	38376b3f 	strb	wzr, [x25, x23]
    8d38:	f9400269 	ldr	x9, [x19]
    8d3c:	394003e8 	ldrb	w8, [sp]
    8d40:	f9400bea 	ldr	x10, [sp, #16]
    8d44:	f9403129 	ldr	x9, [x9, #96]
    8d48:	7200011f 	tst	w8, #0x1
    8d4c:	910003e8 	mov	x8, sp
    8d50:	9a881541 	csinc	x1, x10, x8, ne	// ne = any
    8d54:	aa1303e0 	mov	x0, x19
    8d58:	aa1703e2 	mov	x2, x23
    8d5c:	d63f0120 	blr	x9
    8d60:	394003e8 	ldrb	w8, [sp]
    8d64:	aa0003f8 	mov	x24, x0
    8d68:	360000a8 	tbz	w8, #0, 8d7c <__libc_init@plt-0x3e14>
    8d6c:	f94003e8 	ldr	x8, [sp]
    8d70:	f9400be0 	ldr	x0, [sp, #16]
    8d74:	927ff901 	and	x1, x8, #0xfffffffffffffffe
    8d78:	94000fbe 	bl	cc70 <_ZdlPvm@plt>
    8d7c:	eb17031f 	cmp	x24, x23
    8d80:	54000301 	b.ne	8de0 <__libc_init@plt-0x3db0>  // b.any
    8d84:	cb1502d6 	sub	x22, x22, x21
    8d88:	f10006df 	cmp	x22, #0x1
    8d8c:	5400012b 	b.lt	8db0 <__libc_init@plt-0x3de0>  // b.tstop
    8d90:	f9400268 	ldr	x8, [x19]
    8d94:	aa1303e0 	mov	x0, x19
    8d98:	aa1503e1 	mov	x1, x21
    8d9c:	aa1603e2 	mov	x2, x22
    8da0:	f9403108 	ldr	x8, [x8, #96]
    8da4:	d63f0100 	blr	x8
    8da8:	eb16001f 	cmp	x0, x22
    8dac:	540000e1 	b.ne	8dc8 <__libc_init@plt-0x3dc8>  // b.any
    8db0:	f9000e9f 	str	xzr, [x20, #24]
    8db4:	f9401768 	ldr	x8, [x27, #40]
    8db8:	f85f83a9 	ldur	x9, [x29, #-8]
    8dbc:	eb09011f 	cmp	x8, x9
    8dc0:	540001a0 	b.eq	8df4 <__libc_init@plt-0x3d9c>  // b.none
    8dc4:	14000022 	b	8e4c <__libc_init@plt-0x3d44>
    8dc8:	aa1f03f3 	mov	x19, xzr
    8dcc:	f9401768 	ldr	x8, [x27, #40]
    8dd0:	f85f83a9 	ldur	x9, [x29, #-8]
    8dd4:	eb09011f 	cmp	x8, x9
    8dd8:	540000e0 	b.eq	8df4 <__libc_init@plt-0x3d9c>  // b.none
    8ddc:	1400001c 	b	8e4c <__libc_init@plt-0x3d44>
    8de0:	aa1f03f3 	mov	x19, xzr
    8de4:	f9401768 	ldr	x8, [x27, #40]
    8de8:	f85f83a9 	ldur	x9, [x29, #-8]
    8dec:	eb09011f 	cmp	x8, x9
    8df0:	540002e1 	b.ne	8e4c <__libc_init@plt-0x3d44>  // b.any
    8df4:	aa1303e0 	mov	x0, x19
    8df8:	a9474ff4 	ldp	x20, x19, [sp, #112]
    8dfc:	f9401bfb 	ldr	x27, [sp, #48]
    8e00:	a94657f6 	ldp	x22, x21, [sp, #96]
    8e04:	a9455ff8 	ldp	x24, x23, [sp, #80]
    8e08:	a94467fa 	ldp	x26, x25, [sp, #64]
    8e0c:	a9427bfd 	ldp	x29, x30, [sp, #32]
    8e10:	910203ff 	add	sp, sp, #0x80
    8e14:	d65f03c0 	ret
    8e18:	394003e8 	ldrb	w8, [sp]
    8e1c:	aa0003f3 	mov	x19, x0
    8e20:	360000a8 	tbz	w8, #0, 8e34 <__libc_init@plt-0x3d5c>
    8e24:	f94003e8 	ldr	x8, [sp]
    8e28:	f9400be0 	ldr	x0, [sp, #16]
    8e2c:	927ff901 	and	x1, x8, #0xfffffffffffffffe
    8e30:	94000f90 	bl	cc70 <_ZdlPvm@plt>
    8e34:	f9401768 	ldr	x8, [x27, #40]
    8e38:	f85f83a9 	ldur	x9, [x29, #-8]
    8e3c:	eb09011f 	cmp	x8, x9
    8e40:	54000061 	b.ne	8e4c <__libc_init@plt-0x3d44>  // b.any
    8e44:	aa1303e0 	mov	x0, x19
    8e48:	94000098 	bl	90a8 <__libc_init@plt-0x3ae8>
    8e4c:	94000fa5 	bl	cce0 <__stack_chk_fail@plt>
    8e50:	d503233f 	paciasp
    8e54:	d102c3ff 	sub	sp, sp, #0xb0
    8e58:	a9057bfd 	stp	x29, x30, [sp, #80]
    8e5c:	f90033fb 	str	x27, [sp, #96]
    8e60:	a90767fa 	stp	x26, x25, [sp, #112]
    8e64:	a9085ff8 	stp	x24, x23, [sp, #128]
    8e68:	a90957f6 	stp	x22, x21, [sp, #144]
    8e6c:	a90a4ff4 	stp	x20, x19, [sp, #160]
    8e70:	910143fd 	add	x29, sp, #0x50
    8e74:	aa0103f3 	mov	x19, x1
    8e78:	aa0003e1 	mov	x1, x0
    8e7c:	aa0203f5 	mov	x21, x2
    8e80:	aa1303e0 	mov	x0, x19
    8e84:	94000107 	bl	92a0 <__libc_init@plt-0x38f0>
    8e88:	52800030 	mov	w16, #0x1                   	// #1
    8e8c:	d503251f 	chkfeat	x16
    8e90:	aa1003f4 	mov	x20, x16
    8e94:	f100061f 	cmp	x16, #0x1
    8e98:	540000c1 	b.ne	8eb0 <__libc_init@plt-0x3ce0>  // b.any
    8e9c:	aa1303e0 	mov	x0, x19
    8ea0:	94000149 	bl	93c4 <__libc_init@plt-0x37cc>
    8ea4:	34000ca0 	cbz	w0, 9038 <__libc_init@plt-0x3b58>
    8ea8:	910062b7 	add	x23, x21, #0x18
    8eac:	14000034 	b	8f7c <__libc_init@plt-0x3c14>
    8eb0:	aa1303e0 	mov	x0, x19
    8eb4:	d53b2538 	mrs	x24, gcspr_el0
    8eb8:	94000143 	bl	93c4 <__libc_init@plt-0x37cc>
    8ebc:	34000be0 	cbz	w0, 9038 <__libc_init@plt-0x3b58>
    8ec0:	910062b7 	add	x23, x21, #0x18
    8ec4:	b40005d8 	cbz	x24, 8f7c <__libc_init@plt-0x3c14>
    8ec8:	52800059 	mov	w25, #0x2                   	// #2
    8ecc:	5280011a 	mov	w26, #0x8                   	// #8
    8ed0:	528000db 	mov	w27, #0x6                   	// #6
    8ed4:	52800056 	mov	w22, #0x2                   	// #2
    8ed8:	14000006 	b	8ef0 <__libc_init@plt-0x3ca0>
    8edc:	aa1303e0 	mov	x0, x19
    8ee0:	94000139 	bl	93c4 <__libc_init@plt-0x37cc>
    8ee4:	110006d6 	add	w22, w22, #0x1
    8ee8:	1100235a 	add	w26, w26, #0x8
    8eec:	34000a60 	cbz	w0, 9038 <__libc_init@plt-0x3b58>
    8ef0:	37f80c80 	tbnz	w0, #31, 9080 <__libc_init@plt-0x3b10>
    8ef4:	910063a2 	add	x2, x29, #0x18
    8ef8:	aa1303e0 	mov	x0, x19
    8efc:	12800021 	mov	w1, #0xfffffffe            	// #-2
    8f00:	94000112 	bl	9348 <__libc_init@plt-0x3848>
    8f04:	910023e1 	add	x1, sp, #0x8
    8f08:	aa1303e0 	mov	x0, x19
    8f0c:	94000133 	bl	93d8 <__libc_init@plt-0x37b8>
    8f10:	35000b80 	cbnz	w0, 9080 <__libc_init@plt-0x3b10>
    8f14:	910003e2 	mov	x2, sp
    8f18:	aa1303e0 	mov	x0, x19
    8f1c:	12800001 	mov	w1, #0xffffffff            	// #-1
    8f20:	9400010a 	bl	9348 <__libc_init@plt-0x3848>
    8f24:	f87a4b08 	ldr	x8, [x24, w26, uxtw]
    8f28:	f94003e9 	ldr	x9, [sp]
    8f2c:	eb08013f 	cmp	x9, x8
    8f30:	54000a81 	b.ne	9080 <__libc_init@plt-0x3b10>  // b.any
    8f34:	f94013e8 	ldr	x8, [sp, #32]
    8f38:	b4fffd28 	cbz	x8, 8edc <__libc_init@plt-0x3cb4>
    8f3c:	f9400fa9 	ldr	x9, [x29, #24]
    8f40:	f9400eaa 	ldr	x10, [x21, #24]
    8f44:	52800020 	mov	w0, #0x1                   	// #1
    8f48:	f94002a2 	ldr	x2, [x21]
    8f4c:	aa1503e3 	mov	x3, x21
    8f50:	aa1303e4 	mov	x4, x19
    8f54:	eb0a013f 	cmp	x9, x10
    8f58:	1a990361 	csel	w1, w27, w25, eq	// eq = none
    8f5c:	d63f0100 	blr	x8
    8f60:	7100201f 	cmp	w0, #0x8
    8f64:	540006e1 	b.ne	9040 <__libc_init@plt-0x3b50>  // b.any
    8f68:	f9400fa8 	ldr	x8, [x29, #24]
    8f6c:	f94002e9 	ldr	x9, [x23]
    8f70:	eb09011f 	cmp	x8, x9
    8f74:	54fffb41 	b.ne	8edc <__libc_init@plt-0x3cb4>  // b.any
    8f78:	14000023 	b	9004 <__libc_init@plt-0x3b8c>
    8f7c:	52800058 	mov	w24, #0x2                   	// #2
    8f80:	528000d9 	mov	w25, #0x6                   	// #6
    8f84:	52800056 	mov	w22, #0x2                   	// #2
    8f88:	14000005 	b	8f9c <__libc_init@plt-0x3bf4>
    8f8c:	aa1303e0 	mov	x0, x19
    8f90:	9400010d 	bl	93c4 <__libc_init@plt-0x37cc>
    8f94:	110006d6 	add	w22, w22, #0x1
    8f98:	34000500 	cbz	w0, 9038 <__libc_init@plt-0x3b58>
    8f9c:	37f80720 	tbnz	w0, #31, 9080 <__libc_init@plt-0x3b10>
    8fa0:	910063a2 	add	x2, x29, #0x18
    8fa4:	aa1303e0 	mov	x0, x19
    8fa8:	12800021 	mov	w1, #0xfffffffe            	// #-2
    8fac:	940000e7 	bl	9348 <__libc_init@plt-0x3848>
    8fb0:	910023e1 	add	x1, sp, #0x8
    8fb4:	aa1303e0 	mov	x0, x19
    8fb8:	94000108 	bl	93d8 <__libc_init@plt-0x37b8>
    8fbc:	35000620 	cbnz	w0, 9080 <__libc_init@plt-0x3b10>
    8fc0:	f94013e8 	ldr	x8, [sp, #32]
    8fc4:	b4fffe48 	cbz	x8, 8f8c <__libc_init@plt-0x3c04>
    8fc8:	f9400fa9 	ldr	x9, [x29, #24]
    8fcc:	f9400eaa 	ldr	x10, [x21, #24]
    8fd0:	52800020 	mov	w0, #0x1                   	// #1
    8fd4:	f94002a2 	ldr	x2, [x21]
    8fd8:	aa1503e3 	mov	x3, x21
    8fdc:	aa1303e4 	mov	x4, x19
    8fe0:	eb0a013f 	cmp	x9, x10
    8fe4:	1a980321 	csel	w1, w25, w24, eq	// eq = none
    8fe8:	d63f0100 	blr	x8
    8fec:	7100201f 	cmp	w0, #0x8
    8ff0:	54000281 	b.ne	9040 <__libc_init@plt-0x3b50>  // b.any
    8ff4:	f9400fa8 	ldr	x8, [x29, #24]
    8ff8:	f94002e9 	ldr	x9, [x23]
    8ffc:	eb09011f 	cmp	x8, x9
    9000:	54fffc61 	b.ne	8f8c <__libc_init@plt-0x3c04>  // b.any
    9004:	90000053 	adrp	x19, 11000 <fwrite@plt+0x4110>
    9008:	d503201f 	nop
    900c:	70fc9421 	adr	x1, 2293 <__libc_init@plt-0xa8fd>
    9010:	f942d273 	ldr	x19, [x19, #1440]
    9014:	b0ffffc2 	adrp	x2, 2000 <__libc_init@plt-0xab90>
    9018:	911cb842 	add	x2, x2, #0x72e
    901c:	b0ffffc3 	adrp	x3, 2000 <__libc_init@plt-0xab90>
    9020:	912e4863 	add	x3, x3, #0xb92
    9024:	9104c260 	add	x0, x19, #0x130
    9028:	94000f86 	bl	ce40 <fprintf@plt>
    902c:	9104c260 	add	x0, x19, #0x130
    9030:	94000f88 	bl	ce50 <fflush@plt>
    9034:	94000f8b 	bl	ce60 <abort@plt>
    9038:	528000a0 	mov	w0, #0x5                   	// #5
    903c:	14000012 	b	9084 <__libc_init@plt-0x3b0c>
    9040:	71001c1f 	cmp	w0, #0x7
    9044:	540001e1 	b.ne	9080 <__libc_init@plt-0x3b10>  // b.any
    9048:	f100069f 	cmp	x20, #0x1
    904c:	540000c0 	b.eq	9064 <__libc_init@plt-0x3b2c>  // b.none
    9050:	340000b6 	cbz	w22, 9064 <__libc_init@plt-0x3b2c>
    9054:	aa1f03e8 	mov	x8, xzr
    9058:	710006d6 	subs	w22, w22, #0x1
    905c:	d52b7728 	gcspopm	x8
    9060:	54ffffa1 	b.ne	9054 <__libc_init@plt-0x3b3c>  // b.any
    9064:	aa1303e0 	mov	x0, x19
    9068:	9400008a 	bl	9290 <__libc_init@plt-0x3900>
    906c:	aa0003f3 	mov	x19, x0
    9070:	94000084 	bl	9280 <__libc_init@plt-0x3910>
    9074:	aa0003e8 	mov	x8, x0
    9078:	aa1303e0 	mov	x0, x19
    907c:	d61f0100 	br	x8
    9080:	52800040 	mov	w0, #0x2                   	// #2
    9084:	a94a4ff4 	ldp	x20, x19, [sp, #160]
    9088:	f94033fb 	ldr	x27, [sp, #96]
    908c:	a94957f6 	ldp	x22, x21, [sp, #144]
    9090:	a9485ff8 	ldp	x24, x23, [sp, #128]
    9094:	a94767fa 	ldp	x26, x25, [sp, #112]
    9098:	a9457bfd 	ldp	x29, x30, [sp, #80]
    909c:	9102c3ff 	add	sp, sp, #0xb0
    90a0:	d50323bf 	autiasp
    90a4:	d65f03c0 	ret
    90a8:	d503233f 	paciasp
    90ac:	a9be7bfd 	stp	x29, x30, [sp, #-32]!
    90b0:	a9014ffc 	stp	x28, x19, [sp, #16]
    90b4:	910003fd 	mov	x29, sp
    90b8:	d11203ff 	sub	sp, sp, #0x480
    90bc:	aa0003f3 	mov	x19, x0
    90c0:	9109c3e0 	add	x0, sp, #0x270
    90c4:	94000e82 	bl	cacc <__libc_init@plt-0xc4>
    90c8:	f9400a63 	ldr	x3, [x19, #16]
    90cc:	b50000c3 	cbnz	x3, 90e4 <__libc_init@plt-0x3aac>
    90d0:	9109c3e0 	add	x0, sp, #0x270
    90d4:	910003e1 	mov	x1, sp
    90d8:	aa1303e2 	mov	x2, x19
    90dc:	97ffff5d 	bl	8e50 <__libc_init@plt-0x3d40>
    90e0:	14000006 	b	90f8 <__libc_init@plt-0x3a98>
    90e4:	f9400e64 	ldr	x4, [x19, #24]
    90e8:	9109c3e0 	add	x0, sp, #0x270
    90ec:	910003e1 	mov	x1, sp
    90f0:	aa1303e2 	mov	x2, x19
    90f4:	9400000e 	bl	912c <__libc_init@plt-0x3a64>
    90f8:	90000053 	adrp	x19, 11000 <fwrite@plt+0x4110>
    90fc:	d503201f 	nop
    9100:	70fc8c81 	adr	x1, 2293 <__libc_init@plt-0xa8fd>
    9104:	f942d273 	ldr	x19, [x19, #1440]
    9108:	b0ffffc2 	adrp	x2, 2000 <__libc_init@plt-0xab90>
    910c:	913e7042 	add	x2, x2, #0xf9c
    9110:	b0ffffc3 	adrp	x3, 2000 <__libc_init@plt-0xab90>
    9114:	91109063 	add	x3, x3, #0x424
    9118:	9104c260 	add	x0, x19, #0x130
    911c:	94000f49 	bl	ce40 <fprintf@plt>
    9120:	9104c260 	add	x0, x19, #0x130
    9124:	94000f4b 	bl	ce50 <fflush@plt>
    9128:	94000f4e 	bl	ce60 <abort@plt>
    912c:	d503233f 	paciasp
    9130:	d10283ff 	sub	sp, sp, #0xa0
    9134:	a9057bfd 	stp	x29, x30, [sp, #80]
    9138:	f90033f9 	str	x25, [sp, #96]
    913c:	a9075ff8 	stp	x24, x23, [sp, #112]
    9140:	a90857f6 	stp	x22, x21, [sp, #128]
    9144:	a9094ff4 	stp	x20, x19, [sp, #144]
    9148:	910143fd 	add	x29, sp, #0x50
    914c:	aa0103f5 	mov	x21, x1
    9150:	aa0003e1 	mov	x1, x0
    9154:	aa0403f4 	mov	x20, x4
    9158:	aa1503e0 	mov	x0, x21
    915c:	aa0303f3 	mov	x19, x3
    9160:	aa0203f6 	mov	x22, x2
    9164:	9400004f 	bl	92a0 <__libc_init@plt-0x38f0>
    9168:	aa1503e0 	mov	x0, x21
    916c:	94000096 	bl	93c4 <__libc_init@plt-0x37cc>
    9170:	7100041f 	cmp	w0, #0x1
    9174:	5400068b 	b.lt	9244 <__libc_init@plt-0x394c>  // b.tstop
    9178:	52800038 	mov	w24, #0x1                   	// #1
    917c:	12800039 	mov	w25, #0xfffffffe            	// #-2
    9180:	1400000d 	b	91b4 <__libc_init@plt-0x39dc>
    9184:	aa1503e0 	mov	x0, x21
    9188:	94000042 	bl	9290 <__libc_init@plt-0x3900>
    918c:	aa0003f7 	mov	x23, x0
    9190:	9400003c 	bl	9280 <__libc_init@plt-0x3910>
    9194:	aa0003e8 	mov	x8, x0
    9198:	aa1703e0 	mov	x0, x23
    919c:	d61f0100 	br	x8
    91a0:	aa1503e0 	mov	x0, x21
    91a4:	94000088 	bl	93c4 <__libc_init@plt-0x37cc>
    91a8:	7100001f 	cmp	w0, #0x0
    91ac:	51000739 	sub	w25, w25, #0x1
    91b0:	540004ad 	b.le	9244 <__libc_init@plt-0x394c>
    91b4:	910023e1 	add	x1, sp, #0x8
    91b8:	aa1503e0 	mov	x0, x21
    91bc:	94000087 	bl	93d8 <__libc_init@plt-0x37b8>
    91c0:	35000500 	cbnz	w0, 9260 <__libc_init@plt-0x3930>
    91c4:	f94002c2 	ldr	x2, [x22]
    91c8:	52800020 	mov	w0, #0x1                   	// #1
    91cc:	52800141 	mov	w1, #0xa                   	// #10
    91d0:	aa1603e3 	mov	x3, x22
    91d4:	aa1503e4 	mov	x4, x21
    91d8:	aa1403e5 	mov	x5, x20
    91dc:	d63f0260 	blr	x19
    91e0:	35000400 	cbnz	w0, 9260 <__libc_init@plt-0x3930>
    91e4:	f94013e8 	ldr	x8, [sp, #32]
    91e8:	11000718 	add	w24, w24, #0x1
    91ec:	b4fffda8 	cbz	x8, 91a0 <__libc_init@plt-0x39f0>
    91f0:	f94002c2 	ldr	x2, [x22]
    91f4:	52800020 	mov	w0, #0x1                   	// #1
    91f8:	52800141 	mov	w1, #0xa                   	// #10
    91fc:	aa1603e3 	mov	x3, x22
    9200:	aa1503e4 	mov	x4, x21
    9204:	d63f0100 	blr	x8
    9208:	7100201f 	cmp	w0, #0x8
    920c:	54fffca0 	b.eq	91a0 <__libc_init@plt-0x39f0>  // b.none
    9210:	71001c1f 	cmp	w0, #0x7
    9214:	54000261 	b.ne	9260 <__libc_init@plt-0x3930>  // b.any
    9218:	52800030 	mov	w16, #0x1                   	// #1
    921c:	d503251f 	chkfeat	x16
    9220:	f100061f 	cmp	x16, #0x1
    9224:	54fffb00 	b.eq	9184 <__libc_init@plt-0x3a0c>  // b.none
    9228:	34fffaf8 	cbz	w24, 9184 <__libc_init@plt-0x3a0c>
    922c:	2a1903e8 	mov	w8, w25
    9230:	aa1f03e9 	mov	x9, xzr
    9234:	31000508 	adds	w8, w8, #0x1
    9238:	d52b7729 	gcspopm	x9
    923c:	54ffffa3 	b.cc	9230 <__libc_init@plt-0x3960>  // b.lo, b.ul, b.last
    9240:	17ffffd1 	b	9184 <__libc_init@plt-0x3a0c>
    9244:	f94002c2 	ldr	x2, [x22]
    9248:	52800020 	mov	w0, #0x1                   	// #1
    924c:	52800341 	mov	w1, #0x1a                  	// #26
    9250:	aa1603e3 	mov	x3, x22
    9254:	aa1503e4 	mov	x4, x21
    9258:	aa1403e5 	mov	x5, x20
    925c:	d63f0260 	blr	x19
    9260:	a9494ff4 	ldp	x20, x19, [sp, #144]
    9264:	f94033f9 	ldr	x25, [sp, #96]
    9268:	a94857f6 	ldp	x22, x21, [sp, #128]
    926c:	a9475ff8 	ldp	x24, x23, [sp, #112]
    9270:	a9457bfd 	ldp	x29, x30, [sp, #80]
    9274:	910283ff 	add	sp, sp, #0xa0
    9278:	d50323bf 	autiasp
    927c:	d65f03c0 	ret
    9280:	d503245f 	bti	c
    9284:	d503201f 	nop
    9288:	1001bd20 	adr	x0, ca2c <__libc_init@plt-0x164>
    928c:	d65f03c0 	ret
    9290:	d503245f 	bti	c
    9294:	f9400008 	ldr	x8, [x0]
    9298:	f9403d10 	ldr	x16, [x8, #120]
    929c:	d61f0200 	br	x16
    92a0:	d503233f 	paciasp
    92a4:	a9be7bfd 	stp	x29, x30, [sp, #-32]!
    92a8:	a9014ff4 	stp	x20, x19, [sp, #16]
    92ac:	910003fd 	mov	x29, sp
    92b0:	90000048 	adrp	x8, 11000 <fwrite@plt+0x4110>
    92b4:	910ca108 	add	x8, x8, #0x328
    92b8:	d503201f 	nop
    92bc:	10062829 	adr	x9, 157c0 <fwrite@plt+0x88d0>
    92c0:	52802202 	mov	w2, #0x110                 	// #272
    92c4:	aa0103f4 	mov	x20, x1
    92c8:	aa0003f3 	mov	x19, x0
    92cc:	a8812408 	stp	x8, x9, [x0], #16
    92d0:	94000e8c 	bl	cd00 <memcpy@plt>
    92d4:	ad498281 	ldp	q1, q0, [x20, #304]
    92d8:	91088268 	add	x8, x19, #0x220
    92dc:	ad488a83 	ldp	q3, q2, [x20, #272]
    92e0:	aa1303e0 	mov	x0, x19
    92e4:	2a1f03e1 	mov	w1, wzr
    92e8:	ad0a0261 	stp	q1, q0, [x19, #320]
    92ec:	ad090a63 	stp	q3, q2, [x19, #288]
    92f0:	ad4b8281 	ldp	q1, q0, [x20, #368]
    92f4:	ad4a8a83 	ldp	q3, q2, [x20, #336]
    92f8:	ad0c0261 	stp	q1, q0, [x19, #384]
    92fc:	ad0b0a63 	stp	q3, q2, [x19, #352]
    9300:	ad4d8281 	ldp	q1, q0, [x20, #432]
    9304:	ad4c8a83 	ldp	q3, q2, [x20, #400]
    9308:	ad0e0261 	stp	q1, q0, [x19, #448]
    930c:	ad0d0a63 	stp	q3, q2, [x19, #416]
    9310:	6f00e402 	movi	v2.2d, #0x0
    9314:	ad4f8281 	ldp	q1, q0, [x20, #496]
    9318:	ad4e8e84 	ldp	q4, q3, [x20, #464]
    931c:	ad100261 	stp	q1, q0, [x19, #512]
    9320:	ad0f0e64 	stp	q4, q3, [x19, #480]
    9324:	3c83b102 	stur	q2, [x8, #59]
    9328:	ad110a62 	stp	q2, q2, [x19, #544]
    932c:	ad120a62 	stp	q2, q2, [x19, #576]
    9330:	9400024c 	bl	9c60 <__libc_init@plt-0x2f30>
    9334:	2a1f03e0 	mov	w0, wzr
    9338:	a9414ff4 	ldp	x20, x19, [sp, #16]
    933c:	a8c27bfd 	ldp	x29, x30, [sp], #32
    9340:	d50323bf 	autiasp
    9344:	d65f03c0 	ret
    9348:	d503233f 	paciasp
    934c:	a9bd7bfd 	stp	x29, x30, [sp, #-48]!
    9350:	f9000bf5 	str	x21, [sp, #16]
    9354:	a9024ff4 	stp	x20, x19, [sp, #32]
    9358:	910003fd 	mov	x29, sp
    935c:	f9400008 	ldr	x8, [x0]
    9360:	aa0203f3 	mov	x19, x2
    9364:	aa0003f4 	mov	x20, x0
    9368:	2a0103f5 	mov	w21, w1
    936c:	f9400908 	ldr	x8, [x8, #16]
    9370:	d63f0100 	blr	x8
    9374:	360001c0 	tbz	w0, #0, 93ac <__libc_init@plt-0x37e4>
    9378:	f9400288 	ldr	x8, [x20]
    937c:	aa1403e0 	mov	x0, x20
    9380:	2a1503e1 	mov	w1, w21
    9384:	f9400d08 	ldr	x8, [x8, #24]
    9388:	d63f0100 	blr	x8
    938c:	aa0003e8 	mov	x8, x0
    9390:	2a1f03e0 	mov	w0, wzr
    9394:	f9000268 	str	x8, [x19]
    9398:	a9424ff4 	ldp	x20, x19, [sp, #32]
    939c:	f9400bf5 	ldr	x21, [sp, #16]
    93a0:	a8c37bfd 	ldp	x29, x30, [sp], #48
    93a4:	d50323bf 	autiasp
    93a8:	d65f03c0 	ret
    93ac:	128331a0 	mov	w0, #0xffffe672            	// #-6542
    93b0:	a9424ff4 	ldp	x20, x19, [sp, #32]
    93b4:	f9400bf5 	ldr	x21, [sp, #16]
    93b8:	a8c37bfd 	ldp	x29, x30, [sp], #48
    93bc:	d50323bf 	autiasp
    93c0:	d65f03c0 	ret
    93c4:	d503245f 	bti	c
    93c8:	f9400008 	ldr	x8, [x0]
    93cc:	52800021 	mov	w1, #0x1                   	// #1
    93d0:	f9402110 	ldr	x16, [x8, #64]
    93d4:	d61f0200 	br	x16
    93d8:	d503233f 	paciasp
    93dc:	a9be7bfd 	stp	x29, x30, [sp, #-32]!
    93e0:	f9000bf3 	str	x19, [sp, #16]
    93e4:	910003fd 	mov	x29, sp
    93e8:	f9400008 	ldr	x8, [x0]
    93ec:	aa0103f3 	mov	x19, x1
    93f0:	f9402508 	ldr	x8, [x8, #72]
    93f4:	d63f0100 	blr	x8
    93f8:	f9400668 	ldr	x8, [x19, #8]
    93fc:	f100011f 	cmp	x8, #0x0
    9400:	12833288 	mov	w8, #0xffffe66b            	// #-6549
    9404:	1a9f0100 	csel	w0, w8, wzr, eq	// eq = none
    9408:	f9400bf3 	ldr	x19, [sp, #16]
    940c:	a8c27bfd 	ldp	x29, x30, [sp], #32
    9410:	d50323bf 	autiasp
    9414:	d65f03c0 	ret
    9418:	d503233f 	paciasp
    941c:	a9ba7bfd 	stp	x29, x30, [sp, #-96]!
    9420:	f9000bfb 	str	x27, [sp, #16]
    9424:	a90267fa 	stp	x26, x25, [sp, #32]
    9428:	a9035ff8 	stp	x24, x23, [sp, #48]
    942c:	a90457f6 	stp	x22, x21, [sp, #64]
    9430:	a9054ff4 	stp	x20, x19, [sp, #80]
    9434:	910003fd 	mov	x29, sp
    9438:	aa0103f6 	mov	x22, x1
    943c:	aa0303f3 	mov	x19, x3
    9440:	aa0003f4 	mov	x20, x0
    9444:	b84046d5 	ldr	w21, [x22], #4
    9448:	310006bf 	cmn	w21, #0x1
    944c:	540001c0 	b.eq	9484 <__libc_init@plt-0x370c>  // b.none
    9450:	b4000215 	cbz	x21, 9490 <__libc_init@plt-0x3700>
    9454:	b94002c8 	ldr	w8, [x22]
    9458:	34000228 	cbz	w8, 949c <__libc_init@plt-0x36f4>
    945c:	aa0103f8 	mov	x24, x1
    9460:	aa0203f9 	mov	x25, x2
    9464:	cb0802c1 	sub	x1, x22, x8
    9468:	36000204 	tbz	w4, #0, 94a8 <__libc_init@plt-0x36e8>
    946c:	f9400268 	ldr	x8, [x19]
    9470:	eb01011f 	cmp	x8, x1
    9474:	54000220 	b.eq	94b8 <__libc_init@plt-0x36d8>  // b.none
    9478:	d0ffffc0 	adrp	x0, 3000 <__libc_init@plt-0x9b90>
    947c:	9101a000 	add	x0, x0, #0x68
    9480:	14000044 	b	9590 <__libc_init@plt-0x3600>
    9484:	f8404035 	ldur	x21, [x1, #4]
    9488:	91003036 	add	x22, x1, #0xc
    948c:	b5fffe55 	cbnz	x21, 9454 <__libc_init@plt-0x373c>
    9490:	b0ffffc0 	adrp	x0, 2000 <__libc_init@plt-0xab90>
    9494:	91147000 	add	x0, x0, #0x51c
    9498:	1400003e 	b	9590 <__libc_init@plt-0x3600>
    949c:	b0ffffc0 	adrp	x0, 2000 <__libc_init@plt-0xab90>
    94a0:	9121b800 	add	x0, x0, #0x86e
    94a4:	1400003b 	b	9590 <__libc_init@plt-0x3600>
    94a8:	aa1403e0 	mov	x0, x20
    94ac:	aa1303e2 	mov	x2, x19
    94b0:	94000040 	bl	95b0 <__libc_init@plt-0x35e0>
    94b4:	b50006e0 	cbnz	x0, 9590 <__libc_init@plt-0x3600>
    94b8:	39406263 	ldrb	w3, [x19, #24]
    94bc:	8b1502d5 	add	x21, x22, x21
    94c0:	910012c8 	add	x8, x22, #0x4
    94c4:	910063a1 	add	x1, x29, #0x18
    94c8:	aa1403e0 	mov	x0, x20
    94cc:	aa1503e2 	mov	x2, x21
    94d0:	aa1f03e4 	mov	x4, xzr
    94d4:	f9000fa8 	str	x8, [x29, #24]
    94d8:	9400072c 	bl	b188 <__libc_init@plt-0x1a08>
    94dc:	39406268 	ldrb	w8, [x19, #24]
    94e0:	aa0003f6 	mov	x22, x0
    94e4:	910063a1 	add	x1, x29, #0x18
    94e8:	aa1403e0 	mov	x0, x20
    94ec:	aa1503e2 	mov	x2, x21
    94f0:	aa1f03e4 	mov	x4, xzr
    94f4:	12000d03 	and	w3, w8, #0xf
    94f8:	94000724 	bl	b188 <__libc_init@plt-0x1a08>
    94fc:	3940c669 	ldrb	w9, [x19, #49]
    9500:	aa0003f7 	mov	x23, x0
    9504:	f900173f 	str	xzr, [x25, #40]
    9508:	36000349 	tbz	w9, #0, 9570 <__libc_init@plt-0x3620>
    950c:	910063a0 	add	x0, x29, #0x18
    9510:	aa1503e1 	mov	x1, x21
    9514:	94000800 	bl	b514 <__libc_init@plt-0x167c>
    9518:	39406668 	ldrb	w8, [x19, #25]
    951c:	f9400fbb 	ldr	x27, [x29, #24]
    9520:	7103fd1f 	cmp	w8, #0xff
    9524:	8b00037a 	add	x26, x27, x0
    9528:	54000260 	b.eq	9574 <__libc_init@plt-0x361c>  // b.none
    952c:	910063a1 	add	x1, x29, #0x18
    9530:	12000d03 	and	w3, w8, #0xf
    9534:	aa1403e0 	mov	x0, x20
    9538:	aa1503e2 	mov	x2, x21
    953c:	aa1f03e4 	mov	x4, xzr
    9540:	94000712 	bl	b188 <__libc_init@plt-0x1a08>
    9544:	b4000180 	cbz	x0, 9574 <__libc_init@plt-0x361c>
    9548:	39406663 	ldrb	w3, [x19, #25]
    954c:	910063a1 	add	x1, x29, #0x18
    9550:	aa1403e0 	mov	x0, x20
    9554:	aa1503e2 	mov	x2, x21
    9558:	aa1f03e4 	mov	x4, xzr
    955c:	f9000fbb 	str	x27, [x29, #24]
    9560:	9400070a 	bl	b188 <__libc_init@plt-0x1a08>
    9564:	aa1903e8 	mov	x8, x25
    9568:	f9001720 	str	x0, [x25, #40]
    956c:	14000003 	b	9578 <__libc_init@plt-0x3618>
    9570:	f9400fba 	ldr	x26, [x29, #24]
    9574:	aa1903e8 	mov	x8, x25
    9578:	cb1802a9 	sub	x9, x21, x24
    957c:	aa1f03e0 	mov	x0, xzr
    9580:	a901591a 	stp	x26, x22, [x8, #16]
    9584:	a9002518 	stp	x24, x9, [x8]
    9588:	8b1602e9 	add	x9, x23, x22
    958c:	f9001109 	str	x9, [x8, #32]
    9590:	a9454ff4 	ldp	x20, x19, [sp, #80]
    9594:	f9400bfb 	ldr	x27, [sp, #16]
    9598:	a94457f6 	ldp	x22, x21, [sp, #64]
    959c:	a9435ff8 	ldp	x24, x23, [sp, #48]
    95a0:	a94267fa 	ldp	x26, x25, [sp, #32]
    95a4:	a8c67bfd 	ldp	x29, x30, [sp], #96
    95a8:	d50323bf 	autiasp
    95ac:	d65f03c0 	ret
    95b0:	d503233f 	paciasp
    95b4:	d10143ff 	sub	sp, sp, #0x50
    95b8:	a9017bfd 	stp	x29, x30, [sp, #16]
    95bc:	a9025ff8 	stp	x24, x23, [sp, #32]
    95c0:	a90357f6 	stp	x22, x21, [sp, #48]
    95c4:	a9044ff4 	stp	x20, x19, [sp, #64]
    95c8:	910043fd 	add	x29, sp, #0x10
    95cc:	2f01e440 	movi	d0, #0xff000000ff00
    95d0:	7803305f 	sturh	wzr, [x2, #51]
    95d4:	aa0103e8 	mov	x8, x1
    95d8:	a9027c5f 	stp	xzr, xzr, [x2, #32]
    95dc:	aa0203f3 	mov	x19, x2
    95e0:	aa0103f4 	mov	x20, x1
    95e4:	7900605f 	strh	wzr, [x2, #48]
    95e8:	aa0003f5 	mov	x21, x0
    95ec:	f9000041 	str	x1, [x2]
    95f0:	bd001840 	str	s0, [x2, #24]
    95f4:	b8404509 	ldr	w9, [x8], #4
    95f8:	3100053f 	cmn	w9, #0x1
    95fc:	54000100 	b.eq	961c <__libc_init@plt-0x3574>  // b.none
    9600:	8b090116 	add	x22, x8, x9
    9604:	b4000149 	cbz	x9, 962c <__libc_init@plt-0x3564>
    9608:	b9400109 	ldr	w9, [x8]
    960c:	34000149 	cbz	w9, 9634 <__libc_init@plt-0x355c>
    9610:	b0ffffc0 	adrp	x0, 2000 <__libc_init@plt-0xab90>
    9614:	913fbc00 	add	x0, x0, #0xfef
    9618:	14000084 	b	9828 <__libc_init@plt-0x3368>
    961c:	f8404289 	ldur	x9, [x20, #4]
    9620:	91003288 	add	x8, x20, #0xc
    9624:	8b080136 	add	x22, x9, x8
    9628:	b5ffff09 	cbnz	x9, 9608 <__libc_init@plt-0x3588>
    962c:	aa1f03e0 	mov	x0, xzr
    9630:	1400007e 	b	9828 <__libc_init@plt-0x3368>
    9634:	39401118 	ldrb	w24, [x8, #4]
    9638:	121e7b09 	and	w9, w24, #0xfffffffd
    963c:	7100053f 	cmp	w9, #0x1
    9640:	54000561 	b.ne	96ec <__libc_init@plt-0x34a4>  // b.any
    9644:	91001517 	add	x23, x8, #0x5
    9648:	aa1703e8 	mov	x8, x23
    964c:	38401509 	ldrb	w9, [x8], #1
    9650:	35ffffe9 	cbnz	w9, 964c <__libc_init@plt-0x3544>
    9654:	910023e0 	add	x0, sp, #0x8
    9658:	aa1603e1 	mov	x1, x22
    965c:	f90007e8 	str	x8, [sp, #8]
    9660:	940007ad 	bl	b514 <__libc_init@plt-0x167c>
    9664:	f94007e8 	ldr	x8, [sp, #8]
    9668:	aa1f03e9 	mov	x9, xzr
    966c:	928000cb 	mov	x11, #0xfffffffffffffff9    	// #-7
    9670:	b9002a60 	str	w0, [x19, #40]
    9674:	aa0803ea 	mov	x10, x8
    9678:	eb16015f 	cmp	x10, x22
    967c:	54000e40 	b.eq	9844 <__libc_init@plt-0x334c>  // b.none
    9680:	3840154c 	ldrb	w12, [x10], #1
    9684:	91001d6b 	add	x11, x11, #0x7
    9688:	91000508 	add	x8, x8, #0x1
    968c:	9240198d 	and	x13, x12, #0x7f
    9690:	9acb21ad 	lsl	x13, x13, x11
    9694:	aa0901a9 	orr	x9, x13, x9
    9698:	373fff0c 	tbnz	w12, #7, 9678 <__libc_init@plt-0x3518>
    969c:	11001d6d 	add	w13, w11, #0x7
    96a0:	9280000e 	mov	x14, #0xffffffffffffffff    	// #-1
    96a4:	f100e57f 	cmp	x11, #0x39
    96a8:	528007eb 	mov	w11, #0x3f                  	// #63
    96ac:	9acd21cd 	lsl	x13, x14, x13
    96b0:	f90007e8 	str	x8, [sp, #8]
    96b4:	7a4b3180 	ccmp	w12, w11, #0x0, cc	// cc = lo, ul, last
    96b8:	1a9f81ab 	csel	w11, w13, wzr, hi	// hi = pmore
    96bc:	7100071f 	cmp	w24, #0x1
    96c0:	2a0b0129 	orr	w9, w9, w11
    96c4:	b9002e69 	str	w9, [x19, #44]
    96c8:	54000181 	b.ne	96f8 <__libc_init@plt-0x3498>  // b.any
    96cc:	91000508 	add	x8, x8, #0x1
    96d0:	f90007e8 	str	x8, [sp, #8]
    96d4:	39400140 	ldrb	w0, [x10]
    96d8:	3900ca60 	strb	w0, [x19, #50]
    96dc:	394002e8 	ldrb	w8, [x23]
    96e0:	7101e91f 	cmp	w8, #0x7a
    96e4:	54000180 	b.eq	9714 <__libc_init@plt-0x347c>  // b.none
    96e8:	1400004b 	b	9814 <__libc_init@plt-0x337c>
    96ec:	b0ffffc0 	adrp	x0, 2000 <__libc_init@plt-0xab90>
    96f0:	91102800 	add	x0, x0, #0x40a
    96f4:	1400004d 	b	9828 <__libc_init@plt-0x3368>
    96f8:	910023e0 	add	x0, sp, #0x8
    96fc:	aa1603e1 	mov	x1, x22
    9700:	94000785 	bl	b514 <__libc_init@plt-0x167c>
    9704:	3900ca60 	strb	w0, [x19, #50]
    9708:	394002e8 	ldrb	w8, [x23]
    970c:	7101e91f 	cmp	w8, #0x7a
    9710:	54000821 	b.ne	9814 <__libc_init@plt-0x337c>  // b.any
    9714:	910023e0 	add	x0, sp, #0x8
    9718:	aa1603e1 	mov	x1, x22
    971c:	9400077e 	bl	b514 <__libc_init@plt-0x167c>
    9720:	52800038 	mov	w24, #0x1                   	// #1
    9724:	14000003 	b	9730 <__libc_init@plt-0x3460>
    9728:	3900c278 	strb	w24, [x19, #48]
    972c:	910006f7 	add	x23, x23, #0x1
    9730:	394002e8 	ldrb	w8, [x23]
    9734:	71013d1f 	cmp	w8, #0x4f
    9738:	540001ad 	b.le	976c <__libc_init@plt-0x3424>
    973c:	7101491f 	cmp	w8, #0x52
    9740:	540002ec 	b.gt	979c <__libc_init@plt-0x33f4>
    9744:	7101411f 	cmp	w8, #0x50
    9748:	54000480 	b.eq	97d8 <__libc_init@plt-0x33b8>  // b.none
    974c:	7101491f 	cmp	w8, #0x52
    9750:	54000401 	b.ne	97d0 <__libc_init@plt-0x33c0>  // b.any
    9754:	f94007e8 	ldr	x8, [sp, #8]
    9758:	910006f7 	add	x23, x23, #0x1
    975c:	38401509 	ldrb	w9, [x8], #1
    9760:	f90007e8 	str	x8, [sp, #8]
    9764:	39006269 	strb	w9, [x19, #24]
    9768:	17fffff2 	b	9730 <__libc_init@plt-0x3460>
    976c:	7101191f 	cmp	w8, #0x46
    9770:	5400024d 	b.le	97b8 <__libc_init@plt-0x33d8>
    9774:	71011d1f 	cmp	w8, #0x47
    9778:	540002a0 	b.eq	97cc <__libc_init@plt-0x33c4>  // b.none
    977c:	7101311f 	cmp	w8, #0x4c
    9780:	54000281 	b.ne	97d0 <__libc_init@plt-0x33c0>  // b.any
    9784:	f94007e8 	ldr	x8, [sp, #8]
    9788:	910006f7 	add	x23, x23, #0x1
    978c:	38401509 	ldrb	w9, [x8], #1
    9790:	f90007e8 	str	x8, [sp, #8]
    9794:	39006669 	strb	w9, [x19, #25]
    9798:	17ffffe6 	b	9730 <__libc_init@plt-0x3460>
    979c:	71014d1f 	cmp	w8, #0x53
    97a0:	54fffc40 	b.eq	9728 <__libc_init@plt-0x3468>  // b.none
    97a4:	7101e91f 	cmp	w8, #0x7a
    97a8:	54000141 	b.ne	97d0 <__libc_init@plt-0x33c0>  // b.any
    97ac:	3900c678 	strb	w24, [x19, #49]
    97b0:	910006f7 	add	x23, x23, #0x1
    97b4:	17ffffdf 	b	9730 <__libc_init@plt-0x3460>
    97b8:	7101091f 	cmp	w8, #0x42
    97bc:	540002a1 	b.ne	9810 <__libc_init@plt-0x3380>  // b.any
    97c0:	3900ce78 	strb	w24, [x19, #51]
    97c4:	910006f7 	add	x23, x23, #0x1
    97c8:	17ffffda 	b	9730 <__libc_init@plt-0x3460>
    97cc:	3900d278 	strb	w24, [x19, #52]
    97d0:	910006f7 	add	x23, x23, #0x1
    97d4:	17ffffd7 	b	9730 <__libc_init@plt-0x3460>
    97d8:	f94007e8 	ldr	x8, [sp, #8]
    97dc:	910023e1 	add	x1, sp, #0x8
    97e0:	aa1503e0 	mov	x0, x21
    97e4:	aa1603e2 	mov	x2, x22
    97e8:	aa1f03e4 	mov	x4, xzr
    97ec:	38401503 	ldrb	w3, [x8], #1
    97f0:	f90007e8 	str	x8, [sp, #8]
    97f4:	4b140108 	sub	w8, w8, w20
    97f8:	39006a63 	strb	w3, [x19, #26]
    97fc:	39006e68 	strb	w8, [x19, #27]
    9800:	94000662 	bl	b188 <__libc_init@plt-0x1a08>
    9804:	f9001260 	str	x0, [x19, #32]
    9808:	910006f7 	add	x23, x23, #0x1
    980c:	17ffffc9 	b	9730 <__libc_init@plt-0x3460>
    9810:	35fffe08 	cbnz	w8, 97d0 <__libc_init@plt-0x33c0>
    9814:	f9400268 	ldr	x8, [x19]
    9818:	f94007e9 	ldr	x9, [sp, #8]
    981c:	aa1f03e0 	mov	x0, xzr
    9820:	cb0802c8 	sub	x8, x22, x8
    9824:	a900a668 	stp	x8, x9, [x19, #8]
    9828:	a9444ff4 	ldp	x20, x19, [sp, #64]
    982c:	a94357f6 	ldp	x22, x21, [sp, #48]
    9830:	a9425ff8 	ldp	x24, x23, [sp, #32]
    9834:	a9417bfd 	ldp	x29, x30, [sp, #16]
    9838:	910143ff 	add	sp, sp, #0x50
    983c:	d50323bf 	autiasp
    9840:	d65f03c0 	ret
    9844:	90000053 	adrp	x19, 11000 <fwrite@plt+0x4110>
    9848:	d503201f 	nop
    984c:	70fc5221 	adr	x1, 2293 <__libc_init@plt-0xa8fd>
    9850:	f942d273 	ldr	x19, [x19, #1440]
    9854:	b0ffffc2 	adrp	x2, 2000 <__libc_init@plt-0xab90>
    9858:	912b4442 	add	x2, x2, #0xad1
    985c:	b0ffffc3 	adrp	x3, 2000 <__libc_init@plt-0xab90>
    9860:	911a5463 	add	x3, x3, #0x695
    9864:	9104c260 	add	x0, x19, #0x130
    9868:	94000d76 	bl	ce40 <fprintf@plt>
    986c:	9104c260 	add	x0, x19, #0x130
    9870:	94000d78 	bl	ce50 <fflush@plt>
    9874:	94000d7b 	bl	ce60 <abort@plt>
    9878:	d503245f 	bti	c
    987c:	d65f03c0 	ret
    9880:	d503245f 	bti	c
    9884:	d65f03c0 	ret
    9888:	d503245f 	bti	c
    988c:	31000c3f 	cmn	w1, #0x3
    9890:	54000069 	b.ls	989c <__libc_init@plt-0x32f4>  // b.plast
    9894:	52800020 	mov	w0, #0x1                   	// #1
    9898:	d65f03c0 	ret
    989c:	71017c3f 	cmp	w1, #0x5f
    98a0:	54000069 	b.ls	98ac <__libc_init@plt-0x32e4>  // b.plast
    98a4:	2a1f03e0 	mov	w0, wzr
    98a8:	d65f03c0 	ret
    98ac:	7100883f 	cmp	w1, #0x22
    98b0:	54000061 	b.ne	98bc <__libc_init@plt-0x32d4>  // b.any
    98b4:	52800020 	mov	w0, #0x1                   	// #1
    98b8:	d65f03c0 	ret
    98bc:	51010028 	sub	w8, w1, #0x40
    98c0:	31007d1f 	cmn	w8, #0x1f
    98c4:	1a9f27e0 	cset	w0, cc	// cc = lo, ul, last
    98c8:	d65f03c0 	ret
    98cc:	d503245f 	bti	c
    98d0:	7100743f 	cmp	w1, #0x1d
    98d4:	5400010d 	b.le	98f4 <__libc_init@plt-0x329c>
    98d8:	71007c3f 	cmp	w1, #0x1f
    98dc:	540001ec 	b.gt	9918 <__libc_init@plt-0x3278>
    98e0:	7100783f 	cmp	w1, #0x1e
    98e4:	540003a0 	b.eq	9958 <__libc_init@plt-0x3238>  // b.none
    98e8:	71007c3f 	cmp	w1, #0x1f
    98ec:	54000240 	b.eq	9934 <__libc_init@plt-0x325c>  // b.none
    98f0:	14000014 	b	9940 <__libc_init@plt-0x3250>
    98f4:	3100083f 	cmn	w1, #0x2
    98f8:	540001e0 	b.eq	9934 <__libc_init@plt-0x325c>  // b.none
    98fc:	3100043f 	cmn	w1, #0x1
    9900:	54000140 	b.eq	9928 <__libc_init@plt-0x3268>  // b.none
    9904:	7100743f 	cmp	w1, #0x1d
    9908:	540001c1 	b.ne	9940 <__libc_init@plt-0x3250>  // b.any
    990c:	9103e008 	add	x8, x0, #0xf8
    9910:	f9400100 	ldr	x0, [x8]
    9914:	d65f03c0 	ret
    9918:	7100883f 	cmp	w1, #0x22
    991c:	54000240 	b.eq	9964 <__libc_init@plt-0x322c>  // b.none
    9920:	7100803f 	cmp	w1, #0x20
    9924:	540000e1 	b.ne	9940 <__libc_init@plt-0x3250>  // b.any
    9928:	91044008 	add	x8, x0, #0x110
    992c:	f9400100 	ldr	x0, [x8]
    9930:	d65f03c0 	ret
    9934:	91042008 	add	x8, x0, #0x108
    9938:	f9400100 	ldr	x0, [x8]
    993c:	d65f03c0 	ret
    9940:	7100703f 	cmp	w1, #0x1c
    9944:	54000168 	b.hi	9970 <__libc_init@plt-0x3220>  // b.pmore
    9948:	91004008 	add	x8, x0, #0x10
    994c:	8b214d08 	add	x8, x8, w1, uxtw #3
    9950:	f9400100 	ldr	x0, [x8]
    9954:	d65f03c0 	ret
    9958:	91040008 	add	x8, x0, #0x100
    995c:	f9400100 	ldr	x0, [x8]
    9960:	d65f03c0 	ret
    9964:	91046008 	add	x8, x0, #0x118
    9968:	f9400100 	ldr	x0, [x8]
    996c:	d65f03c0 	ret
    9970:	d503233f 	paciasp
    9974:	a9be7bfd 	stp	x29, x30, [sp, #-32]!
    9978:	f9000bf3 	str	x19, [sp, #16]
    997c:	910003fd 	mov	x29, sp
    9980:	90000053 	adrp	x19, 11000 <fwrite@plt+0x4110>
    9984:	d503201f 	nop
    9988:	70fc4841 	adr	x1, 2293 <__libc_init@plt-0xa8fd>
    998c:	f942d273 	ldr	x19, [x19, #1440]
    9990:	b0ffffc2 	adrp	x2, 2000 <__libc_init@plt-0xab90>
    9994:	91216842 	add	x2, x2, #0x85a
    9998:	b0ffffc3 	adrp	x3, 2000 <__libc_init@plt-0xab90>
    999c:	9118cc63 	add	x3, x3, #0x633
    99a0:	9104c260 	add	x0, x19, #0x130
    99a4:	94000d27 	bl	ce40 <fprintf@plt>
    99a8:	9104c260 	add	x0, x19, #0x130
    99ac:	94000d29 	bl	ce50 <fflush@plt>
    99b0:	94000d2c 	bl	ce60 <abort@plt>
    99b4:	d503245f 	bti	c
    99b8:	7100743f 	cmp	w1, #0x1d
    99bc:	5400010d 	b.le	99dc <__libc_init@plt-0x31b4>
    99c0:	71007c3f 	cmp	w1, #0x1f
    99c4:	540001cc 	b.gt	99fc <__libc_init@plt-0x3194>
    99c8:	7100783f 	cmp	w1, #0x1e
    99cc:	54000320 	b.eq	9a30 <__libc_init@plt-0x3160>  // b.none
    99d0:	71007c3f 	cmp	w1, #0x1f
    99d4:	54000200 	b.eq	9a14 <__libc_init@plt-0x317c>  // b.none
    99d8:	14000011 	b	9a1c <__libc_init@plt-0x3174>
    99dc:	3100083f 	cmn	w1, #0x2
    99e0:	540001a0 	b.eq	9a14 <__libc_init@plt-0x317c>  // b.none
    99e4:	3100043f 	cmn	w1, #0x1
    99e8:	54000120 	b.eq	9a0c <__libc_init@plt-0x3184>  // b.none
    99ec:	7100743f 	cmp	w1, #0x1d
    99f0:	54000161 	b.ne	9a1c <__libc_init@plt-0x3174>  // b.any
    99f4:	f9007c02 	str	x2, [x0, #248]
    99f8:	d65f03c0 	ret
    99fc:	7100883f 	cmp	w1, #0x22
    9a00:	540001c0 	b.eq	9a38 <__libc_init@plt-0x3158>  // b.none
    9a04:	7100803f 	cmp	w1, #0x20
    9a08:	540000a1 	b.ne	9a1c <__libc_init@plt-0x3174>  // b.any
    9a0c:	f9008802 	str	x2, [x0, #272]
    9a10:	d65f03c0 	ret
    9a14:	f9008402 	str	x2, [x0, #264]
    9a18:	d65f03c0 	ret
    9a1c:	7100703f 	cmp	w1, #0x1c
    9a20:	54000108 	b.hi	9a40 <__libc_init@plt-0x3150>  // b.pmore
    9a24:	91004008 	add	x8, x0, #0x10
    9a28:	f8215902 	str	x2, [x8, w1, uxtw #3]
    9a2c:	d65f03c0 	ret
    9a30:	f9008002 	str	x2, [x0, #256]
    9a34:	d65f03c0 	ret
    9a38:	f9008c02 	str	x2, [x0, #280]
    9a3c:	d65f03c0 	ret
    9a40:	d503233f 	paciasp
    9a44:	a9be7bfd 	stp	x29, x30, [sp, #-32]!
    9a48:	f9000bf3 	str	x19, [sp, #16]
    9a4c:	910003fd 	mov	x29, sp
    9a50:	90000053 	adrp	x19, 11000 <fwrite@plt+0x4110>
    9a54:	d503201f 	nop
    9a58:	70fc41c1 	adr	x1, 2293 <__libc_init@plt-0xa8fd>
    9a5c:	f942d273 	ldr	x19, [x19, #1440]
    9a60:	b0ffffc2 	adrp	x2, 2000 <__libc_init@plt-0xab90>
    9a64:	9131bc42 	add	x2, x2, #0xc6f
    9a68:	b0ffffc3 	adrp	x3, 2000 <__libc_init@plt-0xab90>
    9a6c:	9118cc63 	add	x3, x3, #0x633
    9a70:	9104c260 	add	x0, x19, #0x130
    9a74:	94000cf3 	bl	ce40 <fprintf@plt>
    9a78:	9104c260 	add	x0, x19, #0x130
    9a7c:	94000cf5 	bl	ce50 <fflush@plt>
    9a80:	94000cf8 	bl	ce60 <abort@plt>
    9a84:	d503245f 	bti	c
    9a88:	121b6828 	and	w8, w1, #0xffffffe0
    9a8c:	7101011f 	cmp	w8, #0x40
    9a90:	1a9f17e0 	cset	w0, eq	// eq = none
    9a94:	d65f03c0 	ret
    9a98:	d503245f 	bti	c
    9a9c:	8b21cc08 	add	x8, x0, w1, sxtw #3
    9aa0:	fc520100 	ldur	d0, [x8, #-224]
    9aa4:	d65f03c0 	ret
    9aa8:	d503245f 	bti	c
    9aac:	8b21cc08 	add	x8, x0, w1, sxtw #3
    9ab0:	fc120100 	stur	d0, [x8, #-224]
    9ab4:	d65f03c0 	ret
    9ab8:	d503245f 	bti	c
    9abc:	3949a008 	ldrb	w8, [x0, #616]
    9ac0:	36000068 	tbz	w8, #0, 9acc <__libc_init@plt-0x30c4>
    9ac4:	2a1f03e0 	mov	w0, wzr
    9ac8:	d65f03c0 	ret
    9acc:	d503233f 	paciasp
    9ad0:	a9bd7bfd 	stp	x29, x30, [sp, #-48]!
    9ad4:	f9000bf5 	str	x21, [sp, #16]
    9ad8:	a9024ff4 	stp	x20, x19, [sp, #32]
    9adc:	910003fd 	mov	x29, sp
    9ae0:	3949a808 	ldrb	w8, [x0, #618]
    9ae4:	aa0003f3 	mov	x19, x0
    9ae8:	7100051f 	cmp	w8, #0x1
    9aec:	54000281 	b.ne	9b3c <__libc_init@plt-0x3054>  // b.any
    9af0:	f9408668 	ldr	x8, [x19, #264]
    9af4:	aa1f03e9 	mov	x9, xzr
    9af8:	9100426a 	add	x10, x19, #0x10
    9afc:	9104e10b 	add	x11, x8, #0x138
    9b00:	14000006 	b	9b18 <__libc_init@plt-0x3078>
    9b04:	f900826c 	str	x12, [x19, #256]
    9b08:	91000529 	add	x9, x9, #0x1
    9b0c:	9100216b 	add	x11, x11, #0x8
    9b10:	f1007d3f 	cmp	x9, #0x1f
    9b14:	540003c0 	b.eq	9b8c <__libc_init@plt-0x3004>  // b.none
    9b18:	f940016c 	ldr	x12, [x11]
    9b1c:	7100793f 	cmp	w9, #0x1e
    9b20:	54ffff20 	b.eq	9b04 <__libc_init@plt-0x308c>  // b.none
    9b24:	7100753f 	cmp	w9, #0x1d
    9b28:	54000061 	b.ne	9b34 <__libc_init@plt-0x305c>  // b.any
    9b2c:	f9007e6c 	str	x12, [x19, #248]
    9b30:	17fffff6 	b	9b08 <__libc_init@plt-0x3088>
    9b34:	f829794c 	str	x12, [x10, x9, lsl #3]
    9b38:	17fffff4 	b	9b08 <__libc_init@plt-0x3088>
    9b3c:	a9405268 	ldp	x8, x20, [x19]
    9b40:	aa1303e0 	mov	x0, x19
    9b44:	2a0103f5 	mov	w21, w1
    9b48:	12800001 	mov	w1, #0xffffffff            	// #-1
    9b4c:	f9400d08 	ldr	x8, [x8, #24]
    9b50:	d63f0100 	blr	x8
    9b54:	f9412e62 	ldr	x2, [x19, #600]
    9b58:	aa0003e1 	mov	x1, x0
    9b5c:	91004263 	add	x3, x19, #0x10
    9b60:	9109a664 	add	x4, x19, #0x269
    9b64:	120002a5 	and	w5, w21, #0x1
    9b68:	aa1403e0 	mov	x0, x20
    9b6c:	940000d4 	bl	9ebc <__libc_init@plt-0x2cd4>
    9b70:	7100041f 	cmp	w0, #0x1
    9b74:	54000180 	b.eq	9ba4 <__libc_init@plt-0x2fec>  // b.none
    9b78:	a9424ff4 	ldp	x20, x19, [sp, #32]
    9b7c:	f9400bf5 	ldr	x21, [sp, #16]
    9b80:	a8c37bfd 	ldp	x29, x30, [sp], #48
    9b84:	d50323bf 	autiasp
    9b88:	d65f03c0 	ret
    9b8c:	f9411909 	ldr	x9, [x8, #560]
    9b90:	f9008669 	str	x9, [x19, #264]
    9b94:	52800029 	mov	w9, #0x1                   	// #1
    9b98:	f9411d08 	ldr	x8, [x8, #568]
    9b9c:	3909a669 	strb	w9, [x19, #617]
    9ba0:	f9008a68 	str	x8, [x19, #272]
    9ba4:	f9400268 	ldr	x8, [x19]
    9ba8:	aa1303e0 	mov	x0, x19
    9bac:	52800021 	mov	w1, #0x1                   	// #1
    9bb0:	f9403508 	ldr	x8, [x8, #104]
    9bb4:	d63f0100 	blr	x8
    9bb8:	3949a268 	ldrb	w8, [x19, #616]
    9bbc:	52000100 	eor	w0, w8, #0x1
    9bc0:	a9424ff4 	ldp	x20, x19, [sp, #32]
    9bc4:	f9400bf5 	ldr	x21, [sp, #16]
    9bc8:	a8c37bfd 	ldp	x29, x30, [sp], #48
    9bcc:	d50323bf 	autiasp
    9bd0:	d65f03c0 	ret
    9bd4:	d503245f 	bti	c
    9bd8:	3949a008 	ldrb	w8, [x0, #616]
    9bdc:	7100051f 	cmp	w8, #0x1
    9be0:	540000c1 	b.ne	9bf8 <__libc_init@plt-0x2f98>  // b.any
    9be4:	6f00e400 	movi	v0.2d, #0x0
    9be8:	f900203f 	str	xzr, [x1, #64]
    9bec:	ad000020 	stp	q0, q0, [x1]
    9bf0:	ad010020 	stp	q0, q0, [x1, #32]
    9bf4:	d65f03c0 	ret
    9bf8:	3dc08800 	ldr	q0, [x0, #544]
    9bfc:	3d800020 	str	q0, [x1]
    9c00:	ad520002 	ldp	q2, q0, [x0, #576]
    9c04:	f9413008 	ldr	x8, [x0, #608]
    9c08:	3dc08c01 	ldr	q1, [x0, #560]
    9c0c:	f9002028 	str	x8, [x1, #64]
    9c10:	ad010022 	stp	q2, q0, [x1, #32]
    9c14:	3d800421 	str	q1, [x1, #16]
    9c18:	d65f03c0 	ret
    9c1c:	d503245f 	bti	c
    9c20:	91004000 	add	x0, x0, #0x10
    9c24:	14000b82 	b	ca2c <__libc_init@plt-0x164>
    9c28:	d503245f 	bti	c
    9c2c:	3949a400 	ldrb	w0, [x0, #617]
    9c30:	d65f03c0 	ret
    9c34:	d503233f 	paciasp
    9c38:	a9bf7bfd 	stp	x29, x30, [sp, #-16]!
    9c3c:	910003fd 	mov	x29, sp
    9c40:	f9400008 	ldr	x8, [x0]
    9c44:	12800001 	mov	w1, #0xffffffff            	// #-1
    9c48:	f9400d08 	ldr	x8, [x8, #24]
    9c4c:	d63f0100 	blr	x8
    9c50:	2a1f03e0 	mov	w0, wzr
    9c54:	a8c17bfd 	ldp	x29, x30, [sp], #16
    9c58:	d50323bf 	autiasp
    9c5c:	d65f03c0 	ret
    9c60:	d503233f 	paciasp
    9c64:	a9bc7bfd 	stp	x29, x30, [sp, #-64]!
    9c68:	f9000bfc 	str	x28, [sp, #16]
    9c6c:	a90257f6 	stp	x22, x21, [sp, #32]
    9c70:	a9034ff4 	stp	x20, x19, [sp, #48]
    9c74:	910003fd 	mov	x29, sp
    9c78:	d11b03ff 	sub	sp, sp, #0x6c0
    9c7c:	f9400008 	ldr	x8, [x0]
    9c80:	3909a81f 	strb	wzr, [x0, #618]
    9c84:	2a0103f4 	mov	w20, w1
    9c88:	12800001 	mov	w1, #0xffffffff            	// #-1
    9c8c:	aa0003f3 	mov	x19, x0
    9c90:	f9400d08 	ldr	x8, [x8, #24]
    9c94:	d63f0100 	blr	x8
    9c98:	b4000f40 	cbz	x0, 9e80 <__libc_init@plt-0x2d10>
    9c9c:	92400289 	and	x9, x20, #0x1
    9ca0:	3949a66a 	ldrb	w10, [x19, #617]
    9ca4:	f9400668 	ldr	x8, [x19, #8]
    9ca8:	cb090009 	sub	x9, x0, x9
    9cac:	9101c3eb 	add	x11, sp, #0x70
    9cb0:	d503201f 	nop
    9cb4:	10013600 	adr	x0, c374 <__libc_init@plt-0x81c>
    9cb8:	8b0a0134 	add	x20, x9, x10
    9cbc:	910283e1 	add	x1, sp, #0xa0
    9cc0:	a90a2fe8 	stp	x8, x11, [sp, #160]
    9cc4:	f9005bf4 	str	x20, [sp, #176]
    9cc8:	94000c7a 	bl	ceb0 <dl_iterate_phdr@plt>
    9ccc:	34000120 	cbz	w0, 9cf0 <__libc_init@plt-0x2ea0>
    9cd0:	f94043e8 	ldr	x8, [sp, #128]
    9cd4:	b40000e8 	cbz	x8, 9cf0 <__libc_init@plt-0x2ea0>
    9cd8:	9101c3e2 	add	x2, sp, #0x70
    9cdc:	aa1303e0 	mov	x0, x19
    9ce0:	aa1403e1 	mov	x1, x20
    9ce4:	2a1f03e3 	mov	w3, wzr
    9ce8:	940008ee 	bl	c0a0 <__libc_init@plt-0xaf0>
    9cec:	37000ce0 	tbnz	w0, #0, 9e88 <__libc_init@plt-0x2d08>
    9cf0:	d503201f 	nop
    9cf4:	1005d680 	adr	x0, 157c4 <fwrite@plt+0x88d4>
    9cf8:	94000c72 	bl	cec0 <pthread_rwlock_rdlock@plt>
    9cfc:	90000068 	adrp	x8, 15000 <fwrite@plt+0x8110>
    9d00:	90000069 	adrp	x9, 15000 <fwrite@plt+0x8110>
    9d04:	f943d108 	ldr	x8, [x8, #1952]
    9d08:	f943d529 	ldr	x9, [x9, #1960]
    9d0c:	14000002 	b	9d14 <__libc_init@plt-0x2e7c>
    9d10:	91008108 	add	x8, x8, #0x20
    9d14:	eb09011f 	cmp	x8, x9
    9d18:	540005e2 	b.cs	9dd4 <__libc_init@plt-0x2dbc>  // b.hs, b.nlast
    9d1c:	f940050a 	ldr	x10, [x8, #8]
    9d20:	eb14015f 	cmp	x10, x20
    9d24:	54ffff68 	b.hi	9d10 <__libc_init@plt-0x2e80>  // b.pmore
    9d28:	f940090a 	ldr	x10, [x8, #16]
    9d2c:	eb0a029f 	cmp	x20, x10
    9d30:	54ffff02 	b.cs	9d10 <__libc_init@plt-0x2e80>  // b.hs, b.nlast
    9d34:	f9400d15 	ldr	x21, [x8, #24]
    9d38:	d503201f 	nop
    9d3c:	1005d440 	adr	x0, 157c4 <fwrite@plt+0x88d4>
    9d40:	94000c50 	bl	ce80 <pthread_rwlock_unlock@plt>
    9d44:	b40004f5 	cbz	x21, 9de0 <__libc_init@plt-0x2db0>
    9d48:	f9400660 	ldr	x0, [x19, #8]
    9d4c:	910103e2 	add	x2, sp, #0x40
    9d50:	910023e3 	add	x3, sp, #0x8
    9d54:	aa1503e1 	mov	x1, x21
    9d58:	2a1f03e4 	mov	w4, wzr
    9d5c:	97fffdaf 	bl	9418 <__libc_init@plt-0x3778>
    9d60:	b5000400 	cbnz	x0, 9de0 <__libc_init@plt-0x2db0>
    9d64:	910283e0 	add	x0, sp, #0xa0
    9d68:	2a1f03e1 	mov	w1, wzr
    9d6c:	5280c402 	mov	w2, #0x620                 	// #1568
    9d70:	94000c30 	bl	ce30 <memset@plt>
    9d74:	f9400660 	ldr	x0, [x19, #8]
    9d78:	910103e1 	add	x1, sp, #0x40
    9d7c:	910023e2 	add	x2, sp, #0x8
    9d80:	910283e5 	add	x5, sp, #0xa0
    9d84:	aa1403e3 	mov	x3, x20
    9d88:	52800084 	mov	w4, #0x4                   	// #4
    9d8c:	94000178 	bl	a36c <__libc_init@plt-0x2824>
    9d90:	36000280 	tbz	w0, #0, 9de0 <__libc_init@plt-0x2db0>
    9d94:	f94037e8 	ldr	x8, [sp, #104]
    9d98:	f94017e9 	ldr	x9, [sp, #40]
    9d9c:	3cc583e0 	ldur	q0, [sp, #88]
    9da0:	f901267f 	str	xzr, [x19, #584]
    9da4:	f9011a68 	str	x8, [x19, #560]
    9da8:	b940b3e8 	ldr	w8, [sp, #176]
    9dac:	f9011e69 	str	x9, [x19, #568]
    9db0:	52a06009 	mov	w9, #0x3000000             	// #50331648
    9db4:	f9012268 	str	x8, [x19, #576]
    9db8:	b9025269 	str	w9, [x19, #592]
    9dbc:	a94427e8 	ldp	x8, x9, [sp, #64]
    9dc0:	3d808a60 	str	q0, [x19, #544]
    9dc4:	f901327f 	str	xzr, [x19, #608]
    9dc8:	f9012e68 	str	x8, [x19, #600]
    9dcc:	b9025669 	str	w9, [x19, #596]
    9dd0:	1400002e 	b	9e88 <__libc_init@plt-0x2d08>
    9dd4:	d503201f 	nop
    9dd8:	1005cf60 	adr	x0, 157c4 <fwrite@plt+0x88d4>
    9ddc:	94000c29 	bl	ce80 <pthread_rwlock_unlock@plt>
    9de0:	f9400268 	ldr	x8, [x19]
    9de4:	aa1303e0 	mov	x0, x19
    9de8:	12800001 	mov	w1, #0xffffffff            	// #-1
    9dec:	f9400d08 	ldr	x8, [x8, #24]
    9df0:	d63f0100 	blr	x8
    9df4:	b4000460 	cbz	x0, 9e80 <__libc_init@plt-0x2d10>
    9df8:	aa0003f4 	mov	x20, x0
    9dfc:	94000c35 	bl	ced0 <__errno@plt>
    9e00:	aa0003f5 	mov	x21, x0
    9e04:	b9400016 	ldr	w22, [x0]
    9e08:	528010e0 	mov	w0, #0x87                  	// #135
    9e0c:	12800001 	mov	w1, #0xffffffff            	// #-1
    9e10:	aa1403e2 	mov	x2, x20
    9e14:	aa1f03e3 	mov	x3, xzr
    9e18:	52800104 	mov	w4, #0x8                   	// #8
    9e1c:	94000c31 	bl	cee0 <syscall@plt>
    9e20:	b94002a8 	ldr	w8, [x21]
    9e24:	b90002b6 	str	w22, [x21]
    9e28:	7100391f 	cmp	w8, #0xe
    9e2c:	540002a0 	b.eq	9e80 <__libc_init@plt-0x2d10>  // b.none
    9e30:	b9400288 	ldr	w8, [x20]
    9e34:	52822d09 	mov	w9, #0x1168                	// #4456
    9e38:	72ba5009 	movk	w9, #0xd280, lsl #16
    9e3c:	6b09011f 	cmp	w8, w9
    9e40:	54000201 	b.ne	9e80 <__libc_init@plt-0x2d10>  // b.any
    9e44:	b9400688 	ldr	w8, [x20, #4]
    9e48:	52800029 	mov	w9, #0x1                   	// #1
    9e4c:	72ba8009 	movk	w9, #0xd400, lsl #16
    9e50:	6b09011f 	cmp	w8, w9
    9e54:	54000161 	b.ne	9e80 <__libc_init@plt-0x2d10>  // b.any
    9e58:	6f00e400 	movi	v0.2d, #0x0
    9e5c:	91001288 	add	x8, x20, #0x4
    9e60:	f901327f 	str	xzr, [x19, #608]
    9e64:	f9011668 	str	x8, [x19, #552]
    9e68:	52800028 	mov	w8, #0x1                   	// #1
    9e6c:	f9011274 	str	x20, [x19, #544]
    9e70:	3909aa68 	strb	w8, [x19, #618]
    9e74:	ad120260 	stp	q0, q0, [x19, #576]
    9e78:	3d808e60 	str	q0, [x19, #560]
    9e7c:	14000003 	b	9e88 <__libc_init@plt-0x2d08>
    9e80:	52800028 	mov	w8, #0x1                   	// #1
    9e84:	3909a268 	strb	w8, [x19, #616]
    9e88:	911b03ff 	add	sp, sp, #0x6c0
    9e8c:	a9434ff4 	ldp	x20, x19, [sp, #48]
    9e90:	f9400bfc 	ldr	x28, [sp, #16]
    9e94:	a94257f6 	ldp	x22, x21, [sp, #32]
    9e98:	a8c47bfd 	ldp	x29, x30, [sp], #64
    9e9c:	d50323bf 	autiasp
    9ea0:	d65f03c0 	ret
    9ea4:	d503245f 	bti	c
    9ea8:	2a0103e0 	mov	w0, w1
    9eac:	14000ad4 	b	c9fc <__libc_init@plt-0x194>
    9eb0:	d503245f 	bti	c
    9eb4:	91004000 	add	x0, x0, #0x10
    9eb8:	d65f03c0 	ret
    9ebc:	d503233f 	paciasp
    9ec0:	a9ba7bfd 	stp	x29, x30, [sp, #-96]!
    9ec4:	a9016ffc 	stp	x28, x27, [sp, #16]
    9ec8:	a90267fa 	stp	x26, x25, [sp, #32]
    9ecc:	a9035ff8 	stp	x24, x23, [sp, #48]
    9ed0:	a90457f6 	stp	x22, x21, [sp, #64]
    9ed4:	a9054ff4 	stp	x20, x19, [sp, #80]
    9ed8:	910003fd 	mov	x29, sp
    9edc:	d13403ff 	sub	sp, sp, #0xd00
    9ee0:	aa0203e8 	mov	x8, x2
    9ee4:	aa0403f6 	mov	x22, x4
    9ee8:	aa0303f3 	mov	x19, x3
    9eec:	aa0103f5 	mov	x21, x1
    9ef0:	d10143a2 	sub	x2, x29, #0x50
    9ef4:	d10223a3 	sub	x3, x29, #0x88
    9ef8:	aa0803e1 	mov	x1, x8
    9efc:	2a1f03e4 	mov	w4, wzr
    9f00:	2a0503f7 	mov	w23, w5
    9f04:	aa0003f4 	mov	x20, x0
    9f08:	97fffd44 	bl	9418 <__libc_init@plt-0x3778>
    9f0c:	b5000640 	cbnz	x0, 9fd4 <__libc_init@plt-0x2bbc>
    9f10:	911963e0 	add	x0, sp, #0x658
    9f14:	2a1f03e1 	mov	w1, wzr
    9f18:	5280c402 	mov	w2, #0x620                 	// #1568
    9f1c:	94000bc5 	bl	ce30 <memset@plt>
    9f20:	d10143a1 	sub	x1, x29, #0x50
    9f24:	d10223a2 	sub	x2, x29, #0x88
    9f28:	911963e5 	add	x5, sp, #0x658
    9f2c:	aa1403e0 	mov	x0, x20
    9f30:	aa1503e3 	mov	x3, x21
    9f34:	52800084 	mov	w4, #0x4                   	// #4
    9f38:	9400010d 	bl	a36c <__libc_init@plt-0x2824>
    9f3c:	360004c0 	tbz	w0, #0, 9fd4 <__libc_init@plt-0x2bbc>
    9f40:	911963e1 	add	x1, sp, #0x658
    9f44:	aa1403e0 	mov	x0, x20
    9f48:	aa1303e2 	mov	x2, x19
    9f4c:	911963f8 	add	x24, sp, #0x658
    9f50:	940003bd 	bl	ae44 <__libc_init@plt-0x1d4c>
    9f54:	aa0003f5 	mov	x21, x0
    9f58:	36000197 	tbz	w23, #0, 9f88 <__libc_init@plt-0x2c08>
    9f5c:	385ac3a8 	ldurb	w8, [x29, #-84]
    9f60:	7100051f 	cmp	w8, #0x1
    9f64:	54000121 	b.ne	9f88 <__libc_init@plt-0x2c08>  // b.any
    9f68:	f9407e68 	ldr	x8, [x19, #248]
    9f6c:	927ced08 	and	x8, x8, #0xfffffffffffffff0
    9f70:	eb15011f 	cmp	x8, x21
    9f74:	540000a2 	b.cs	9f88 <__libc_init@plt-0x2c08>  // b.hs, b.nlast
    9f78:	d9200908 	stg	x8, [x8]
    9f7c:	91004108 	add	x8, x8, #0x10
    9f80:	eb15011f 	cmp	x8, x21
    9f84:	54ffffa3 	b.cc	9f78 <__libc_init@plt-0x2c18>  // b.lo, b.ul, b.last
    9f88:	911123e0 	add	x0, sp, #0x448
    9f8c:	aa1303e1 	mov	x1, x19
    9f90:	52804202 	mov	w2, #0x210                 	// #528
    9f94:	911123fa 	add	x26, sp, #0x448
    9f98:	94000b5a 	bl	cd00 <memcpy@plt>
    9f9c:	91044269 	add	x9, x19, #0x110
    9fa0:	9103e268 	add	x8, x19, #0xf8
    9fa4:	aa1f03fb 	mov	x27, xzr
    9fa8:	a90127e8 	stp	x8, x9, [sp, #16]
    9fac:	9103a268 	add	x8, x19, #0xe8
    9fb0:	aa1f03f7 	mov	x23, xzr
    9fb4:	91006318 	add	x24, x24, #0x18
    9fb8:	91042279 	add	x25, x19, #0x108
    9fbc:	f90013e8 	str	x8, [sp, #32]
    9fc0:	9104027c 	add	x28, x19, #0x100
    9fc4:	9103c268 	add	x8, x19, #0xf0
    9fc8:	f902a3f5 	str	x21, [sp, #1344]
    9fcc:	f90007e8 	str	x8, [sp, #8]
    9fd0:	14000017 	b	a02c <__libc_init@plt-0x2b64>
    9fd4:	12833220 	mov	w0, #0xffffe66e            	// #-6546
    9fd8:	913403ff 	add	sp, sp, #0xd00
    9fdc:	a9454ff4 	ldp	x20, x19, [sp, #80]
    9fe0:	a94457f6 	ldp	x22, x21, [sp, #64]
    9fe4:	a9435ff8 	ldp	x24, x23, [sp, #48]
    9fe8:	a94267fa 	ldp	x26, x25, [sp, #32]
    9fec:	a9416ffc 	ldp	x28, x27, [sp, #16]
    9ff0:	a8c67bfd 	ldp	x29, x30, [sp], #96
    9ff4:	d50323bf 	autiasp
    9ff8:	d65f03c0 	ret
    9ffc:	f9400708 	ldr	x8, [x24, #8]
    a000:	b25a67e9 	mov	x9, #0xffffffc000000000    	// #-274877906944
    a004:	8b088128 	add	x8, x9, x8, lsl #32
    a008:	f9400fe9 	ldr	x9, [sp, #24]
    a00c:	935dfd08 	asr	x8, x8, #29
    a010:	fc686920 	ldr	d0, [x9, x8]
    a014:	8b1b0f48 	add	x8, x26, x27, lsl #3
    a018:	fc110100 	stur	d0, [x8, #-240]
    a01c:	9100077b 	add	x27, x27, #0x1
    a020:	91004318 	add	x24, x24, #0x10
    a024:	f101837f 	cmp	x27, #0x60
    a028:	54000ca0 	b.eq	a1bc <__libc_init@plt-0x29d4>  // b.none
    a02c:	b9400308 	ldr	w8, [x24]
    a030:	340001c8 	cbz	w8, a068 <__libc_init@plt-0x2b28>
    a034:	121b0769 	and	w9, w27, #0x60
    a038:	7101013f 	cmp	w9, #0x40
    a03c:	54000341 	b.ne	a0a4 <__libc_init@plt-0x2aec>  // b.any
    a040:	7100111f 	cmp	w8, #0x4
    a044:	5400044c 	b.gt	a0cc <__libc_init@plt-0x2ac4>
    a048:	2f00e400 	movi	d0, #0x0
    a04c:	7100051f 	cmp	w8, #0x1
    a050:	54fffe20 	b.eq	a014 <__libc_init@plt-0x2b7c>  // b.none
    a054:	7100091f 	cmp	w8, #0x2
    a058:	540013c1 	b.ne	a2d0 <__libc_init@plt-0x28c0>  // b.any
    a05c:	f9400708 	ldr	x8, [x24, #8]
    a060:	fc756900 	ldr	d0, [x8, x21]
    a064:	17ffffec 	b	a014 <__libc_init@plt-0x2b7c>
    a068:	385aa3a8 	ldurb	w8, [x29, #-86]
    a06c:	eb08037f 	cmp	x27, x8
    a070:	54fffd61 	b.ne	a01c <__libc_init@plt-0x2b74>  // b.any
    a074:	7100791f 	cmp	w8, #0x1e
    a078:	5400070d 	b.le	a158 <__libc_init@plt-0x2a38>
    a07c:	7100891f 	cmp	w8, #0x22
    a080:	aa1903e9 	mov	x9, x25
    a084:	540007c0 	b.eq	a17c <__libc_init@plt-0x2a14>  // b.none
    a088:	7100811f 	cmp	w8, #0x20
    a08c:	aa1c03e9 	mov	x9, x28
    a090:	54000760 	b.eq	a17c <__libc_init@plt-0x2a14>  // b.none
    a094:	f9400be9 	ldr	x9, [sp, #16]
    a098:	71007d1f 	cmp	w8, #0x1f
    a09c:	54000700 	b.eq	a17c <__libc_init@plt-0x2a14>  // b.none
    a0a0:	14000034 	b	a170 <__libc_init@plt-0x2a20>
    a0a4:	385aa3a8 	ldurb	w8, [x29, #-86]
    a0a8:	eb08037f 	cmp	x27, x8
    a0ac:	54000261 	b.ne	a0f8 <__libc_init@plt-0x2a98>  // b.any
    a0b0:	aa1403e0 	mov	x0, x20
    a0b4:	aa1303e1 	mov	x1, x19
    a0b8:	aa1503e2 	mov	x2, x21
    a0bc:	aa1803e3 	mov	x3, x24
    a0c0:	940003ae 	bl	af78 <__libc_init@plt-0x1c18>
    a0c4:	aa0003f7 	mov	x23, x0
    a0c8:	17ffffd5 	b	a01c <__libc_init@plt-0x2b74>
    a0cc:	7100151f 	cmp	w8, #0x5
    a0d0:	54fff960 	b.eq	9ffc <__libc_init@plt-0x2b94>  // b.none
    a0d4:	7100191f 	cmp	w8, #0x6
    a0d8:	54000fc1 	b.ne	a2d0 <__libc_init@plt-0x28c0>  // b.any
    a0dc:	f9400700 	ldr	x0, [x24, #8]
    a0e0:	aa1403e1 	mov	x1, x20
    a0e4:	aa1303e2 	mov	x2, x19
    a0e8:	aa1503e3 	mov	x3, x21
    a0ec:	9400057c 	bl	b6dc <__libc_init@plt-0x14b4>
    a0f0:	fd400000 	ldr	d0, [x0]
    a0f4:	17ffffc8 	b	a014 <__libc_init@plt-0x2b7c>
    a0f8:	f1008b7f 	cmp	x27, #0x22
    a0fc:	54000101 	b.ne	a11c <__libc_init@plt-0x2a74>  // b.any
    a100:	aa1403e0 	mov	x0, x20
    a104:	aa1303e1 	mov	x1, x19
    a108:	aa1503e2 	mov	x2, x21
    a10c:	aa1803e3 	mov	x3, x24
    a110:	9400039a 	bl	af78 <__libc_init@plt-0x1c18>
    a114:	f902abe0 	str	x0, [sp, #1360]
    a118:	17ffffc1 	b	a01c <__libc_init@plt-0x2b74>
    a11c:	f100837f 	cmp	x27, #0x20
    a120:	54000d48 	b.hi	a2c8 <__libc_init@plt-0x28c8>  // b.pmore
    a124:	aa1403e0 	mov	x0, x20
    a128:	aa1303e1 	mov	x1, x19
    a12c:	aa1503e2 	mov	x2, x21
    a130:	aa1803e3 	mov	x3, x24
    a134:	94000391 	bl	af78 <__libc_init@plt-0x1c18>
    a138:	71007b7f 	cmp	w27, #0x1e
    a13c:	5400024c 	b.gt	a184 <__libc_init@plt-0x2a0c>
    a140:	7100777f 	cmp	w27, #0x1d
    a144:	54000340 	b.eq	a1ac <__libc_init@plt-0x29e4>  // b.none
    a148:	71007b7f 	cmp	w27, #0x1e
    a14c:	54000281 	b.ne	a19c <__libc_init@plt-0x29f4>  // b.any
    a150:	f9029fe0 	str	x0, [sp, #1336]
    a154:	17ffffb2 	b	a01c <__libc_init@plt-0x2b74>
    a158:	f94013e9 	ldr	x9, [sp, #32]
    a15c:	7100751f 	cmp	w8, #0x1d
    a160:	540000e0 	b.eq	a17c <__libc_init@plt-0x2a14>  // b.none
    a164:	f94007e9 	ldr	x9, [sp, #8]
    a168:	7100791f 	cmp	w8, #0x1e
    a16c:	54000080 	b.eq	a17c <__libc_init@plt-0x2a14>  // b.none
    a170:	7100711f 	cmp	w8, #0x1c
    a174:	54000c88 	b.hi	a304 <__libc_init@plt-0x288c>  // b.pmore
    a178:	8b080e69 	add	x9, x19, x8, lsl #3
    a17c:	f9400137 	ldr	x23, [x9]
    a180:	17ffffa7 	b	a01c <__libc_init@plt-0x2b74>
    a184:	71007f7f 	cmp	w27, #0x1f
    a188:	54000160 	b.eq	a1b4 <__libc_init@plt-0x29dc>  // b.none
    a18c:	7100837f 	cmp	w27, #0x20
    a190:	54000061 	b.ne	a19c <__libc_init@plt-0x29f4>  // b.any
    a194:	f902a7e0 	str	x0, [sp, #1352]
    a198:	17ffffa1 	b	a01c <__libc_init@plt-0x2b74>
    a19c:	f100737f 	cmp	x27, #0x1c
    a1a0:	54000cc8 	b.hi	a338 <__libc_init@plt-0x2858>  // b.pmore
    a1a4:	f83b7b40 	str	x0, [x26, x27, lsl #3]
    a1a8:	17ffff9d 	b	a01c <__libc_init@plt-0x2b74>
    a1ac:	f9029be0 	str	x0, [sp, #1328]
    a1b0:	17ffff9b 	b	a01c <__libc_init@plt-0x2b74>
    a1b4:	f902a3e0 	str	x0, [sp, #1344]
    a1b8:	17ffff99 	b	a01c <__libc_init@plt-0x2b74>
    a1bc:	385a83a8 	ldurb	w8, [x29, #-88]
    a1c0:	9108e3e0 	add	x0, sp, #0x238
    a1c4:	aa1303e1 	mov	x1, x19
    a1c8:	52804202 	mov	w2, #0x210                 	// #528
    a1cc:	390002c8 	strb	w8, [x22]
    a1d0:	94000acc 	bl	cd00 <memcpy@plt>
    a1d4:	911963e8 	add	x8, sp, #0x658
    a1d8:	d10083b8 	sub	x24, x29, #0x20
    a1dc:	9108e116 	add	x22, x8, #0x238
    a1e0:	3dc002c0 	ldr	q0, [x22]
    a1e4:	3d800300 	str	q0, [x24]
    a1e8:	b85e03a8 	ldur	w8, [x29, #-32]
    a1ec:	34000108 	cbz	w8, a20c <__libc_init@plt-0x2984>
    a1f0:	9108e3e1 	add	x1, sp, #0x238
    a1f4:	d10083a3 	sub	x3, x29, #0x20
    a1f8:	aa1403e0 	mov	x0, x20
    a1fc:	aa1503e2 	mov	x2, x21
    a200:	9400035e 	bl	af78 <__libc_init@plt-0x1c18>
    a204:	37000080 	tbnz	w0, #0, a214 <__libc_init@plt-0x297c>
    a208:	14000029 	b	a2ac <__libc_init@plt-0x28e4>
    a20c:	f85e83a0 	ldur	x0, [x29, #-24]
    a210:	360004e0 	tbz	w0, #0, a2ac <__libc_init@plt-0x28e4>
    a214:	b40004d7 	cbz	x23, a2ac <__libc_init@plt-0x28e4>
    a218:	9100a3e0 	add	x0, sp, #0x28
    a21c:	aa1303e1 	mov	x1, x19
    a220:	52804202 	mov	w2, #0x210                 	// #528
    a224:	94000ab7 	bl	cd00 <memcpy@plt>
    a228:	3dc002c0 	ldr	q0, [x22]
    a22c:	3d800300 	str	q0, [x24]
    a230:	b85e03a8 	ldur	w8, [x29, #-32]
    a234:	340001c8 	cbz	w8, a26c <__libc_init@plt-0x2924>
    a238:	9100a3e1 	add	x1, sp, #0x28
    a23c:	d10083a3 	sub	x3, x29, #0x20
    a240:	aa1403e0 	mov	x0, x20
    a244:	aa1503e2 	mov	x2, x21
    a248:	9400034c 	bl	af78 <__libc_init@plt-0x1c18>
    a24c:	37080140 	tbnz	w0, #1, a274 <__libc_init@plt-0x291c>
    a250:	385ab3a8 	ldurb	w8, [x29, #-85]
    a254:	aa1703f1 	mov	x17, x23
    a258:	aa1503f0 	mov	x16, x21
    a25c:	7100051f 	cmp	w8, #0x1
    a260:	540001c1 	b.ne	a298 <__libc_init@plt-0x28f8>  // b.any
    a264:	d50321df 	autib1716
    a268:	14000010 	b	a2a8 <__libc_init@plt-0x28e8>
    a26c:	f85e83a0 	ldur	x0, [x29, #-24]
    a270:	360fff00 	tbz	w0, #1, a250 <__libc_init@plt-0x2940>
    a274:	385ab3a8 	ldurb	w8, [x29, #-85]
    a278:	f9463bef 	ldr	x15, [sp, #3184]
    a27c:	aa1503f0 	mov	x16, x21
    a280:	aa1703f1 	mov	x17, x23
    a284:	7100051f 	cmp	w8, #0x1
    a288:	540000c1 	b.ne	a2a0 <__libc_init@plt-0x28f0>  // b.any
    a28c:	d50324ff 	hint	#0x27
    a290:	d50321df 	autib1716
    a294:	14000005 	b	a2a8 <__libc_init@plt-0x28e8>
    a298:	d503219f 	autia1716
    a29c:	14000003 	b	a2a8 <__libc_init@plt-0x28e8>
    a2a0:	d50324ff 	hint	#0x27
    a2a4:	d503219f 	autia1716
    a2a8:	aa1103f7 	mov	x23, x17
    a2ac:	911123e1 	add	x1, sp, #0x448
    a2b0:	aa1303e0 	mov	x0, x19
    a2b4:	52804202 	mov	w2, #0x210                 	// #528
    a2b8:	f902a7f7 	str	x23, [sp, #1352]
    a2bc:	94000a91 	bl	cd00 <memcpy@plt>
    a2c0:	52800020 	mov	w0, #0x1                   	// #1
    a2c4:	17ffff45 	b	9fd8 <__libc_init@plt-0x2bb8>
    a2c8:	128331a0 	mov	w0, #0xffffe672            	// #-6542
    a2cc:	17ffff43 	b	9fd8 <__libc_init@plt-0x2bb8>
    a2d0:	f0000033 	adrp	x19, 11000 <fwrite@plt+0x4110>
    a2d4:	d503201f 	nop
    a2d8:	70fbfdc1 	adr	x1, 2293 <__libc_init@plt-0xa8fd>
    a2dc:	f942d273 	ldr	x19, [x19, #1440]
    a2e0:	90ffffc2 	adrp	x2, 2000 <__libc_init@plt-0xab90>
    a2e4:	910bd842 	add	x2, x2, #0x2f6
    a2e8:	90ffffc3 	adrp	x3, 2000 <__libc_init@plt-0xab90>
    a2ec:	911d6463 	add	x3, x3, #0x759
    a2f0:	9104c260 	add	x0, x19, #0x130
    a2f4:	94000ad3 	bl	ce40 <fprintf@plt>
    a2f8:	9104c260 	add	x0, x19, #0x130
    a2fc:	94000ad5 	bl	ce50 <fflush@plt>
    a300:	94000ad8 	bl	ce60 <abort@plt>
    a304:	f0000033 	adrp	x19, 11000 <fwrite@plt+0x4110>
    a308:	d503201f 	nop
    a30c:	70fbfc21 	adr	x1, 2293 <__libc_init@plt-0xa8fd>
    a310:	f942d273 	ldr	x19, [x19, #1440]
    a314:	90ffffc2 	adrp	x2, 2000 <__libc_init@plt-0xab90>
    a318:	91216842 	add	x2, x2, #0x85a
    a31c:	90ffffc3 	adrp	x3, 2000 <__libc_init@plt-0xab90>
    a320:	9118cc63 	add	x3, x3, #0x633
    a324:	9104c260 	add	x0, x19, #0x130
    a328:	94000ac6 	bl	ce40 <fprintf@plt>
    a32c:	9104c260 	add	x0, x19, #0x130
    a330:	94000ac8 	bl	ce50 <fflush@plt>
    a334:	94000acb 	bl	ce60 <abort@plt>
    a338:	f0000033 	adrp	x19, 11000 <fwrite@plt+0x4110>
    a33c:	d503201f 	nop
    a340:	70fbfa81 	adr	x1, 2293 <__libc_init@plt-0xa8fd>
    a344:	f942d273 	ldr	x19, [x19, #1440]
    a348:	90ffffc2 	adrp	x2, 2000 <__libc_init@plt-0xab90>
    a34c:	9131bc42 	add	x2, x2, #0xc6f
    a350:	90ffffc3 	adrp	x3, 2000 <__libc_init@plt-0xab90>
    a354:	9118cc63 	add	x3, x3, #0x633
    a358:	9104c260 	add	x0, x19, #0x130
    a35c:	94000ab9 	bl	ce40 <fprintf@plt>
    a360:	9104c260 	add	x0, x19, #0x130
    a364:	94000abb 	bl	ce50 <fflush@plt>
    a368:	94000abe 	bl	ce60 <abort@plt>
    a36c:	d503233f 	paciasp
    a370:	a9ba7bfd 	stp	x29, x30, [sp, #-96]!
    a374:	a9016ffc 	stp	x28, x27, [sp, #16]
    a378:	a90267fa 	stp	x26, x25, [sp, #32]
    a37c:	a9035ff8 	stp	x24, x23, [sp, #48]
    a380:	a90457f6 	stp	x22, x21, [sp, #64]
    a384:	a9054ff4 	stp	x20, x19, [sp, #80]
    a388:	910003fd 	mov	x29, sp
    a38c:	d11a83ff 	sub	sp, sp, #0x6a0
    a390:	a940a04a 	ldp	x10, x8, [x2, #8]
    a394:	910003f3 	mov	x19, sp
    a398:	f9400049 	ldr	x9, [x2]
    a39c:	a941302b 	ldp	x11, x12, [x1, #16]
    a3a0:	aa0503f4 	mov	x20, x5
    a3a4:	aa0203f6 	mov	x22, x2
    a3a8:	aa1f03fc 	mov	x28, xzr
    a3ac:	8b090149 	add	x9, x10, x9
    a3b0:	910060b8 	add	x24, x5, #0x18
    a3b4:	d503201f 	nop
    a3b8:	50fc7257 	adr	x23, 3202 <__libc_init@plt-0x998e>
    a3bc:	a93ca7a8 	stp	x8, x9, [x29, #-56]
    a3c0:	92800008 	mov	x8, #0xffffffffffffffff    	// #-1
    a3c4:	a9402829 	ldp	x9, x10, [x1]
    a3c8:	a93dafa8 	stp	x8, x11, [x29, #-40]
    a3cc:	b9002e64 	str	w4, [x19, #44]
    a3d0:	a9018660 	stp	x0, x1, [x19, #24]
    a3d4:	8b090148 	add	x8, x10, x9
    a3d8:	cb0c0069 	sub	x9, x3, x12
    a3dc:	9108e0aa 	add	x10, x5, #0x238
    a3e0:	a93ea7a8 	stp	x8, x9, [x29, #-24]
    a3e4:	91010268 	add	x8, x19, #0x40
    a3e8:	9108e109 	add	x9, x8, #0x238
    a3ec:	91006108 	add	x8, x8, #0x18
    a3f0:	a903227f 	stp	xzr, x8, [x19, #48]
    a3f4:	a900aa69 	stp	x9, x10, [x19, #8]
    a3f8:	14000004 	b	a408 <__libc_init@plt-0x2788>
    a3fc:	9100639c 	add	x28, x28, #0x18
    a400:	f100c39f 	cmp	x28, #0x30
    a404:	54003da0 	b.eq	abb8 <__libc_init@plt-0x1fd8>  // b.none
    a408:	d100e3a8 	sub	x8, x29, #0x38
    a40c:	8b1c0108 	add	x8, x8, x28
    a410:	a9406509 	ldp	x9, x25, [x8]
    a414:	f9400915 	ldr	x21, [x8, #16]
    a418:	eb19013f 	cmp	x9, x25
    a41c:	f81c03a9 	stur	x9, [x29, #-64]
    a420:	fa403aa4 	ccmp	x21, #0x0, #0x4, cc	// cc = lo, ul, last
    a424:	54fffec0 	b.eq	a3fc <__libc_init@plt-0x2794>  // b.none
    a428:	aa1f03fa 	mov	x26, xzr
    a42c:	aa0903e8 	mov	x8, x9
    a430:	3840150a 	ldrb	w10, [x8], #1
    a434:	f81c03a8 	stur	x8, [x29, #-64]
    a438:	7100bd5f 	cmp	w10, #0x2f
    a43c:	54003688 	b.hi	ab0c <__libc_init@plt-0x2084>  // b.pmore
    a440:	1000008b 	adr	x11, a450 <__libc_init@plt-0x2740>
    a444:	786a7aec 	ldrh	w12, [x23, x10, lsl #1]
    a448:	8b0c096b 	add	x11, x11, x12, lsl #2
    a44c:	d61f0160 	br	x11
    a450:	d503249f 	bti	j
    a454:	394062c3 	ldrb	w3, [x22, #24]
    a458:	f9400e60 	ldr	x0, [x19, #24]
    a45c:	d10103a1 	sub	x1, x29, #0x40
    a460:	aa1903e2 	mov	x2, x25
    a464:	aa1f03e4 	mov	x4, xzr
    a468:	94000348 	bl	b188 <__libc_init@plt-0x1a08>
    a46c:	aa0003fa 	mov	x26, x0
    a470:	140001cb 	b	ab9c <__libc_init@plt-0x1ff4>
    a474:	d503249f 	bti	j
    a478:	d10103a0 	sub	x0, x29, #0x40
    a47c:	aa1903e1 	mov	x1, x25
    a480:	94000425 	bl	b514 <__libc_init@plt-0x167c>
    a484:	f85c03aa 	ldur	x10, [x29, #-64]
    a488:	aa1f03e8 	mov	x8, xzr
    a48c:	928000c9 	mov	x9, #0xfffffffffffffff9    	// #-7
    a490:	aa0a03ec 	mov	x12, x10
    a494:	eb19019f 	cmp	x12, x25
    a498:	540046e0 	b.eq	ad74 <__libc_init@plt-0x1e1c>  // b.none
    a49c:	3840158b 	ldrb	w11, [x12], #1
    a4a0:	91001d29 	add	x9, x9, #0x7
    a4a4:	9100054a 	add	x10, x10, #0x1
    a4a8:	9240196d 	and	x13, x11, #0x7f
    a4ac:	9ac921ad 	lsl	x13, x13, x9
    a4b0:	aa0801a8 	orr	x8, x13, x8
    a4b4:	373fff0b 	tbnz	w11, #7, a494 <__libc_init@plt-0x26fc>
    a4b8:	f101801f 	cmp	x0, #0x60
    a4bc:	f81c03aa 	stur	x10, [x29, #-64]
    a4c0:	54004202 	b.cs	ad00 <__libc_init@plt-0x1e90>  // b.hs, b.nlast
    a4c4:	91001d2a 	add	x10, x9, #0x7
    a4c8:	9280000c 	mov	x12, #0xffffffffffffffff    	// #-1
    a4cc:	f100e53f 	cmp	x9, #0x39
    a4d0:	528007e9 	mov	w9, #0x3f                  	// #63
    a4d4:	9aca218a 	lsl	x10, x12, x10
    a4d8:	7a493160 	ccmp	w11, w9, #0x0, cc	// cc = lo, ul, last
    a4dc:	1a9f8149 	csel	w9, w10, wzr, hi	// hi = pmore
    a4e0:	b9402eca 	ldr	w10, [x22, #44]
    a4e4:	2a090108 	orr	w8, w8, w9
    a4e8:	1b087d48 	mul	w8, w10, w8
    a4ec:	29002280 	stp	w0, w8, [x20]
    a4f0:	140001ab 	b	ab9c <__libc_init@plt-0x1ff4>
    a4f4:	d503249f 	bti	j
    a4f8:	d10103a0 	sub	x0, x29, #0x40
    a4fc:	aa1903e1 	mov	x1, x25
    a500:	94000405 	bl	b514 <__libc_init@plt-0x167c>
    a504:	f101801f 	cmp	x0, #0x60
    a508:	540038e2 	b.cs	ac24 <__libc_init@plt-0x1f6c>  // b.hs, b.nlast
    a50c:	f85c03a9 	ldur	x9, [x29, #-64]
    a510:	aa1f03e8 	mov	x8, xzr
    a514:	928000ca 	mov	x10, #0xfffffffffffffff9    	// #-7
    a518:	aa0903ec 	mov	x12, x9
    a51c:	eb19019f 	cmp	x12, x25
    a520:	54004780 	b.eq	ae10 <__libc_init@plt-0x1d80>  // b.none
    a524:	3840158b 	ldrb	w11, [x12], #1
    a528:	91001d4a 	add	x10, x10, #0x7
    a52c:	91000529 	add	x9, x9, #0x1
    a530:	9240196d 	and	x13, x11, #0x7f
    a534:	9aca21ad 	lsl	x13, x13, x10
    a538:	aa0801a8 	orr	x8, x13, x8
    a53c:	373fff0b 	tbnz	w11, #7, a51c <__libc_init@plt-0x2674>
    a540:	8b00130c 	add	x12, x24, x0, lsl #4
    a544:	f100e55f 	cmp	x10, #0x39
    a548:	11001d4a 	add	w10, w10, #0x7
    a54c:	9280000d 	mov	x13, #0xffffffffffffffff    	// #-1
    a550:	528007ee 	mov	w14, #0x3f                  	// #63
    a554:	f81c03a9 	stur	x9, [x29, #-64]
    a558:	9aca21ad 	lsl	x13, x13, x10
    a55c:	3940118f 	ldrb	w15, [x12, #4]
    a560:	7a4e3160 	ccmp	w11, w14, #0x0, cc	// cc = lo, ul, last
    a564:	b9802eca 	ldrsw	x10, [x22, #44]
    a568:	9a9f81ab 	csel	x11, x13, xzr, hi	// hi = pmore
    a56c:	370000cf 	tbnz	w15, #0, a584 <__libc_init@plt-0x260c>
    a570:	f9401e6d 	ldr	x13, [x19, #56]
    a574:	3dc00180 	ldr	q0, [x12]
    a578:	52800029 	mov	w9, #0x1                   	// #1
    a57c:	39001189 	strb	w9, [x12, #4]
    a580:	3ca079a0 	str	q0, [x13, x0, lsl #4]
    a584:	aa0b0108 	orr	x8, x8, x11
    a588:	52800089 	mov	w9, #0x4                   	// #4
    a58c:	14000118 	b	a9ec <__libc_init@plt-0x21a4>
    a590:	d503249f 	bti	j
    a594:	d10103a0 	sub	x0, x29, #0x40
    a598:	aa1903e1 	mov	x1, x25
    a59c:	940003de 	bl	b514 <__libc_init@plt-0x167c>
    a5a0:	f101801f 	cmp	x0, #0x60
    a5a4:	540031c2 	b.cs	abdc <__libc_init@plt-0x1fb4>  // b.hs, b.nlast
    a5a8:	b9000280 	str	w0, [x20]
    a5ac:	1400017c 	b	ab9c <__libc_init@plt-0x1ff4>
    a5b0:	d503249f 	bti	j
    a5b4:	d10103a0 	sub	x0, x29, #0x40
    a5b8:	aa1903e1 	mov	x1, x25
    a5bc:	940003d6 	bl	b514 <__libc_init@plt-0x167c>
    a5c0:	b9001280 	str	w0, [x20, #16]
    a5c4:	14000176 	b	ab9c <__libc_init@plt-0x1ff4>
    a5c8:	d503249f 	bti	j
    a5cc:	3948f288 	ldrb	w8, [x20, #572]
    a5d0:	370000c8 	tbnz	w8, #0, a5e8 <__libc_init@plt-0x25a8>
    a5d4:	a940a269 	ldp	x9, x8, [x19, #8]
    a5d8:	3dc00100 	ldr	q0, [x8]
    a5dc:	52800028 	mov	w8, #0x1                   	// #1
    a5e0:	3908f288 	strb	w8, [x20, #572]
    a5e4:	3d800120 	str	q0, [x9]
    a5e8:	f9401269 	ldr	x9, [x19, #32]
    a5ec:	f9412288 	ldr	x8, [x20, #576]
    a5f0:	f9400d29 	ldr	x9, [x9, #24]
    a5f4:	d2400508 	eor	x8, x8, #0x3
    a5f8:	f9012288 	str	x8, [x20, #576]
    a5fc:	8b090349 	add	x9, x26, x9
    a600:	d1001128 	sub	x8, x9, #0x4
    a604:	f9030e88 	str	x8, [x20, #1560]
    a608:	14000165 	b	ab9c <__libc_init@plt-0x1ff4>
    a60c:	d503249f 	bti	j
    a610:	d118c3fb 	sub	x27, sp, #0x630
    a614:	9100037f 	mov	sp, x27
    a618:	f9401a68 	ldr	x8, [x19, #48]
    a61c:	aa1b03e0 	mov	x0, x27
    a620:	aa1403e1 	mov	x1, x20
    a624:	5280c402 	mov	w2, #0x620                 	// #1568
    a628:	f8008408 	str	x8, [x0], #8
    a62c:	940009b5 	bl	cd00 <memcpy@plt>
    a630:	f9001a7b 	str	x27, [x19, #48]
    a634:	1400015a 	b	ab9c <__libc_init@plt-0x1ff4>
    a638:	d503249f 	bti	j
    a63c:	d10103a0 	sub	x0, x29, #0x40
    a640:	aa1903e1 	mov	x1, x25
    a644:	940003b4 	bl	b514 <__libc_init@plt-0x167c>
    a648:	f101801f 	cmp	x0, #0x60
    a64c:	54002ba2 	b.cs	abc0 <__libc_init@plt-0x1fd0>  // b.hs, b.nlast
    a650:	8b001308 	add	x8, x24, x0, lsl #4
    a654:	39401109 	ldrb	w9, [x8, #4]
    a658:	370000c9 	tbnz	w9, #0, a670 <__libc_init@plt-0x2520>
    a65c:	f9401e6a 	ldr	x10, [x19, #56]
    a660:	3dc00100 	ldr	q0, [x8]
    a664:	52800029 	mov	w9, #0x1                   	// #1
    a668:	39001109 	strb	w9, [x8, #4]
    a66c:	3ca07940 	str	q0, [x10, x0, lsl #4]
    a670:	f85c03a9 	ldur	x9, [x29, #-64]
    a674:	528000ea 	mov	w10, #0x7                   	// #7
    a678:	140000f1 	b	aa3c <__libc_init@plt-0x2154>
    a67c:	d503249f 	bti	j
    a680:	d10103a0 	sub	x0, x29, #0x40
    a684:	aa1903e1 	mov	x1, x25
    a688:	940003a3 	bl	b514 <__libc_init@plt-0x167c>
    a68c:	aa0003fb 	mov	x27, x0
    a690:	d10103a0 	sub	x0, x29, #0x40
    a694:	aa1903e1 	mov	x1, x25
    a698:	9400039f 	bl	b514 <__libc_init@plt-0x167c>
    a69c:	f101837f 	cmp	x27, #0x60
    a6a0:	54002b42 	b.cs	ac08 <__libc_init@plt-0x1f88>  // b.hs, b.nlast
    a6a4:	2900029b 	stp	w27, w0, [x20]
    a6a8:	1400013d 	b	ab9c <__libc_init@plt-0x1ff4>
    a6ac:	d503249f 	bti	j
    a6b0:	aa1f03e9 	mov	x9, xzr
    a6b4:	928000ca 	mov	x10, #0xfffffffffffffff9    	// #-7
    a6b8:	aa0803eb 	mov	x11, x8
    a6bc:	eb19017f 	cmp	x11, x25
    a6c0:	54003740 	b.eq	ada8 <__libc_init@plt-0x1de8>  // b.none
    a6c4:	3840156c 	ldrb	w12, [x11], #1
    a6c8:	91001d4a 	add	x10, x10, #0x7
    a6cc:	91000508 	add	x8, x8, #0x1
    a6d0:	9240198d 	and	x13, x12, #0x7f
    a6d4:	9aca21ad 	lsl	x13, x13, x10
    a6d8:	aa0901a9 	orr	x9, x13, x9
    a6dc:	373fff0c 	tbnz	w12, #7, a6bc <__libc_init@plt-0x24d4>
    a6e0:	11001d4b 	add	w11, w10, #0x7
    a6e4:	9280000d 	mov	x13, #0xffffffffffffffff    	// #-1
    a6e8:	f100e55f 	cmp	x10, #0x39
    a6ec:	528007ea 	mov	w10, #0x3f                  	// #63
    a6f0:	9acb21ab 	lsl	x11, x13, x11
    a6f4:	f81c03a8 	stur	x8, [x29, #-64]
    a6f8:	7a4a3180 	ccmp	w12, w10, #0x0, cc	// cc = lo, ul, last
    a6fc:	1a9f816a 	csel	w10, w11, wzr, hi	// hi = pmore
    a700:	b9402ecb 	ldr	w11, [x22, #44]
    a704:	2a0a0129 	orr	w9, w9, w10
    a708:	1b097d69 	mul	w9, w11, w9
    a70c:	b9000689 	str	w9, [x20, #4]
    a710:	14000123 	b	ab9c <__libc_init@plt-0x1ff4>
    a714:	d503249f 	bti	j
    a718:	39400528 	ldrb	w8, [x9, #1]
    a71c:	b9402aca 	ldr	w10, [x22, #40]
    a720:	91000929 	add	x9, x9, #0x2
    a724:	14000060 	b	a8a4 <__libc_init@plt-0x22ec>
    a728:	d503249f 	bti	j
    a72c:	d10103a0 	sub	x0, x29, #0x40
    a730:	aa1903e1 	mov	x1, x25
    a734:	94000378 	bl	b514 <__libc_init@plt-0x167c>
    a738:	aa0003fb 	mov	x27, x0
    a73c:	d10103a0 	sub	x0, x29, #0x40
    a740:	aa1903e1 	mov	x1, x25
    a744:	94000374 	bl	b514 <__libc_init@plt-0x167c>
    a748:	f101837f 	cmp	x27, #0x60
    a74c:	54002502 	b.cs	abec <__libc_init@plt-0x1fa4>  // b.hs, b.nlast
    a750:	8b1b1308 	add	x8, x24, x27, lsl #4
    a754:	b9802ec9 	ldrsw	x9, [x22, #44]
    a758:	3940110a 	ldrb	w10, [x8, #4]
    a75c:	3700218a 	tbnz	w10, #0, ab8c <__libc_init@plt-0x2004>
    a760:	f9401e6b 	ldr	x11, [x19, #56]
    a764:	3dc00100 	ldr	q0, [x8]
    a768:	5280002a 	mov	w10, #0x1                   	// #1
    a76c:	3900110a 	strb	w10, [x8, #4]
    a770:	3cbb7960 	str	q0, [x11, x27, lsl #4]
    a774:	14000106 	b	ab8c <__libc_init@plt-0x2004>
    a778:	d503249f 	bti	j
    a77c:	f9401a68 	ldr	x8, [x19, #48]
    a780:	b4002e68 	cbz	x8, ad4c <__libc_init@plt-0x1e44>
    a784:	91002101 	add	x1, x8, #0x8
    a788:	aa1403e0 	mov	x0, x20
    a78c:	5280c402 	mov	w2, #0x620                 	// #1568
    a790:	aa0803fb 	mov	x27, x8
    a794:	9400095b 	bl	cd00 <memcpy@plt>
    a798:	f940037b 	ldr	x27, [x27]
    a79c:	f9001a7b 	str	x27, [x19, #48]
    a7a0:	140000ff 	b	ab9c <__libc_init@plt-0x1ff4>
    a7a4:	d503249f 	bti	j
    a7a8:	b9402e68 	ldr	w8, [x19, #44]
    a7ac:	7100111f 	cmp	w8, #0x4
    a7b0:	54001f61 	b.ne	ab9c <__libc_init@plt-0x1ff4>  // b.any
    a7b4:	3948f288 	ldrb	w8, [x20, #572]
    a7b8:	370000c8 	tbnz	w8, #0, a7d0 <__libc_init@plt-0x23c0>
    a7bc:	a940a269 	ldp	x9, x8, [x19, #8]
    a7c0:	3dc00100 	ldr	q0, [x8]
    a7c4:	52800028 	mov	w8, #0x1                   	// #1
    a7c8:	3908f288 	strb	w8, [x20, #572]
    a7cc:	3d800120 	str	q0, [x9]
    a7d0:	f9412288 	ldr	x8, [x20, #576]
    a7d4:	d2400108 	eor	x8, x8, #0x1
    a7d8:	f9012288 	str	x8, [x20, #576]
    a7dc:	140000f0 	b	ab9c <__libc_init@plt-0x1ff4>
    a7e0:	d503249f 	bti	j
    a7e4:	d10103a0 	sub	x0, x29, #0x40
    a7e8:	aa1903e1 	mov	x1, x25
    a7ec:	9400034a 	bl	b514 <__libc_init@plt-0x167c>
    a7f0:	f101801f 	cmp	x0, #0x60
    a7f4:	54002502 	b.cs	ac94 <__libc_init@plt-0x1efc>  // b.hs, b.nlast
    a7f8:	8b001308 	add	x8, x24, x0, lsl #4
    a7fc:	39401109 	ldrb	w9, [x8, #4]
    a800:	7100053f 	cmp	w9, #0x1
    a804:	54001cc1 	b.ne	ab9c <__libc_init@plt-0x1ff4>  // b.any
    a808:	f9401e69 	ldr	x9, [x19, #56]
    a80c:	3ce07920 	ldr	q0, [x9, x0, lsl #4]
    a810:	140000cc 	b	ab40 <__libc_init@plt-0x2050>
    a814:	d503249f 	bti	j
    a818:	d10103a0 	sub	x0, x29, #0x40
    a81c:	aa1903e1 	mov	x1, x25
    a820:	9400033d 	bl	b514 <__libc_init@plt-0x167c>
    a824:	f101801f 	cmp	x0, #0x60
    a828:	54002442 	b.cs	acb0 <__libc_init@plt-0x1ee0>  // b.hs, b.nlast
    a82c:	8b001308 	add	x8, x24, x0, lsl #4
    a830:	39401109 	ldrb	w9, [x8, #4]
    a834:	370000c9 	tbnz	w9, #0, a84c <__libc_init@plt-0x2344>
    a838:	f9401e6a 	ldr	x10, [x19, #56]
    a83c:	3dc00100 	ldr	q0, [x8]
    a840:	52800029 	mov	w9, #0x1                   	// #1
    a844:	39001109 	strb	w9, [x8, #4]
    a848:	3ca07940 	str	q0, [x10, x0, lsl #4]
    a84c:	52800029 	mov	w9, #0x1                   	// #1
    a850:	b9000109 	str	w9, [x8]
    a854:	140000d2 	b	ab9c <__libc_init@plt-0x1ff4>
    a858:	d503249f 	bti	j
    a85c:	d10103a0 	sub	x0, x29, #0x40
    a860:	aa1903e1 	mov	x1, x25
    a864:	9400032c 	bl	b514 <__libc_init@plt-0x167c>
    a868:	b9000680 	str	w0, [x20, #4]
    a86c:	140000cc 	b	ab9c <__libc_init@plt-0x1ff4>
    a870:	d503249f 	bti	j
    a874:	b900029f 	str	wzr, [x20]
    a878:	f9000688 	str	x8, [x20, #8]
    a87c:	14000072 	b	aa44 <__libc_init@plt-0x214c>
    a880:	d503249f 	bti	j
    a884:	78401128 	ldurh	w8, [x9, #1]
    a888:	b9402aca 	ldr	w10, [x22, #40]
    a88c:	91000d29 	add	x9, x9, #0x3
    a890:	14000005 	b	a8a4 <__libc_init@plt-0x22ec>
    a894:	d503249f 	bti	j
    a898:	b8401128 	ldur	w8, [x9, #1]
    a89c:	b9402aca 	ldr	w10, [x22, #40]
    a8a0:	91001529 	add	x9, x9, #0x5
    a8a4:	1b087d48 	mul	w8, w10, w8
    a8a8:	8b08035a 	add	x26, x26, x8
    a8ac:	f81c03a9 	stur	x9, [x29, #-64]
    a8b0:	140000bb 	b	ab9c <__libc_init@plt-0x1ff4>
    a8b4:	d503249f 	bti	j
    a8b8:	d10103a0 	sub	x0, x29, #0x40
    a8bc:	aa1903e1 	mov	x1, x25
    a8c0:	94000315 	bl	b514 <__libc_init@plt-0x167c>
    a8c4:	aa0003fb 	mov	x27, x0
    a8c8:	d10103a0 	sub	x0, x29, #0x40
    a8cc:	aa1903e1 	mov	x1, x25
    a8d0:	94000311 	bl	b514 <__libc_init@plt-0x167c>
    a8d4:	f101837f 	cmp	x27, #0x60
    a8d8:	54001c22 	b.cs	ac5c <__libc_init@plt-0x1f34>  // b.hs, b.nlast
    a8dc:	f101801f 	cmp	x0, #0x60
    a8e0:	540021e2 	b.cs	ad1c <__libc_init@plt-0x1e74>  // b.hs, b.nlast
    a8e4:	8b1b1308 	add	x8, x24, x27, lsl #4
    a8e8:	39401109 	ldrb	w9, [x8, #4]
    a8ec:	370000c9 	tbnz	w9, #0, a904 <__libc_init@plt-0x228c>
    a8f0:	f9401e6a 	ldr	x10, [x19, #56]
    a8f4:	3dc00100 	ldr	q0, [x8]
    a8f8:	52800029 	mov	w9, #0x1                   	// #1
    a8fc:	39001109 	strb	w9, [x8, #4]
    a900:	3cbb7940 	str	q0, [x10, x27, lsl #4]
    a904:	528000a9 	mov	w9, #0x5                   	// #5
    a908:	f9000500 	str	x0, [x8, #8]
    a90c:	b9000109 	str	w9, [x8]
    a910:	140000a3 	b	ab9c <__libc_init@plt-0x1ff4>
    a914:	d503249f 	bti	j
    a918:	d10103a0 	sub	x0, x29, #0x40
    a91c:	aa1903e1 	mov	x1, x25
    a920:	940002fd 	bl	b514 <__libc_init@plt-0x167c>
    a924:	f101801f 	cmp	x0, #0x60
    a928:	54001e42 	b.cs	acf0 <__libc_init@plt-0x1ea0>  // b.hs, b.nlast
    a92c:	8b001308 	add	x8, x24, x0, lsl #4
    a930:	39401109 	ldrb	w9, [x8, #4]
    a934:	370000c9 	tbnz	w9, #0, a94c <__libc_init@plt-0x2244>
    a938:	f9401e6a 	ldr	x10, [x19, #56]
    a93c:	3dc00100 	ldr	q0, [x8]
    a940:	52800029 	mov	w9, #0x1                   	// #1
    a944:	39001109 	strb	w9, [x8, #4]
    a948:	3ca07940 	str	q0, [x10, x0, lsl #4]
    a94c:	b900011f 	str	wzr, [x8]
    a950:	14000093 	b	ab9c <__libc_init@plt-0x1ff4>
    a954:	d503249f 	bti	j
    a958:	d10103a0 	sub	x0, x29, #0x40
    a95c:	aa1903e1 	mov	x1, x25
    a960:	940002ed 	bl	b514 <__libc_init@plt-0x167c>
    a964:	f101801f 	cmp	x0, #0x60
    a968:	54001882 	b.cs	ac78 <__libc_init@plt-0x1f18>  // b.hs, b.nlast
    a96c:	f85c03a9 	ldur	x9, [x29, #-64]
    a970:	aa1f03e8 	mov	x8, xzr
    a974:	928000ca 	mov	x10, #0xfffffffffffffff9    	// #-7
    a978:	aa0903ec 	mov	x12, x9
    a97c:	eb19019f 	cmp	x12, x25
    a980:	540022e0 	b.eq	addc <__libc_init@plt-0x1db4>  // b.none
    a984:	3840158b 	ldrb	w11, [x12], #1
    a988:	91001d4a 	add	x10, x10, #0x7
    a98c:	91000529 	add	x9, x9, #0x1
    a990:	9240196d 	and	x13, x11, #0x7f
    a994:	9aca21ad 	lsl	x13, x13, x10
    a998:	aa0801a8 	orr	x8, x13, x8
    a99c:	373fff0b 	tbnz	w11, #7, a97c <__libc_init@plt-0x2214>
    a9a0:	8b00130c 	add	x12, x24, x0, lsl #4
    a9a4:	f100e55f 	cmp	x10, #0x39
    a9a8:	11001d4a 	add	w10, w10, #0x7
    a9ac:	9280000d 	mov	x13, #0xffffffffffffffff    	// #-1
    a9b0:	528007ee 	mov	w14, #0x3f                  	// #63
    a9b4:	f81c03a9 	stur	x9, [x29, #-64]
    a9b8:	9aca21ad 	lsl	x13, x13, x10
    a9bc:	3940118f 	ldrb	w15, [x12, #4]
    a9c0:	7a4e3160 	ccmp	w11, w14, #0x0, cc	// cc = lo, ul, last
    a9c4:	b9802eca 	ldrsw	x10, [x22, #44]
    a9c8:	9a9f81ab 	csel	x11, x13, xzr, hi	// hi = pmore
    a9cc:	370000cf 	tbnz	w15, #0, a9e4 <__libc_init@plt-0x21ac>
    a9d0:	f9401e6d 	ldr	x13, [x19, #56]
    a9d4:	3dc00180 	ldr	q0, [x12]
    a9d8:	52800029 	mov	w9, #0x1                   	// #1
    a9dc:	39001189 	strb	w9, [x12, #4]
    a9e0:	3ca079a0 	str	q0, [x13, x0, lsl #4]
    a9e4:	aa0b0108 	orr	x8, x8, x11
    a9e8:	52800049 	mov	w9, #0x2                   	// #2
    a9ec:	9b0a7d08 	mul	x8, x8, x10
    a9f0:	b9000189 	str	w9, [x12]
    a9f4:	f9000588 	str	x8, [x12, #8]
    a9f8:	14000069 	b	ab9c <__libc_init@plt-0x1ff4>
    a9fc:	d503249f 	bti	j
    aa00:	d10103a0 	sub	x0, x29, #0x40
    aa04:	aa1903e1 	mov	x1, x25
    aa08:	940002c3 	bl	b514 <__libc_init@plt-0x167c>
    aa0c:	f101801f 	cmp	x0, #0x60
    aa10:	54001582 	b.cs	acc0 <__libc_init@plt-0x1ed0>  // b.hs, b.nlast
    aa14:	8b001308 	add	x8, x24, x0, lsl #4
    aa18:	39401109 	ldrb	w9, [x8, #4]
    aa1c:	370000c9 	tbnz	w9, #0, aa34 <__libc_init@plt-0x215c>
    aa20:	f9401e6a 	ldr	x10, [x19, #56]
    aa24:	3dc00100 	ldr	q0, [x8]
    aa28:	52800029 	mov	w9, #0x1                   	// #1
    aa2c:	39001109 	strb	w9, [x8, #4]
    aa30:	3ca07940 	str	q0, [x10, x0, lsl #4]
    aa34:	f85c03a9 	ldur	x9, [x29, #-64]
    aa38:	528000ca 	mov	w10, #0x6                   	// #6
    aa3c:	b900010a 	str	w10, [x8]
    aa40:	f9000509 	str	x9, [x8, #8]
    aa44:	d10103a0 	sub	x0, x29, #0x40
    aa48:	aa1903e1 	mov	x1, x25
    aa4c:	940002b2 	bl	b514 <__libc_init@plt-0x167c>
    aa50:	f85c03a8 	ldur	x8, [x29, #-64]
    aa54:	8b000108 	add	x8, x8, x0
    aa58:	f81c03a8 	stur	x8, [x29, #-64]
    aa5c:	14000050 	b	ab9c <__libc_init@plt-0x1ff4>
    aa60:	d503249f 	bti	j
    aa64:	d10103a0 	sub	x0, x29, #0x40
    aa68:	aa1903e1 	mov	x1, x25
    aa6c:	940002aa 	bl	b514 <__libc_init@plt-0x167c>
    aa70:	aa0003fb 	mov	x27, x0
    aa74:	f101801f 	cmp	x0, #0x60
    aa78:	540012c2 	b.cs	acd0 <__libc_init@plt-0x1ec0>  // b.hs, b.nlast
    aa7c:	d10103a0 	sub	x0, x29, #0x40
    aa80:	aa1903e1 	mov	x1, x25
    aa84:	940002a4 	bl	b514 <__libc_init@plt-0x167c>
    aa88:	8b1b1308 	add	x8, x24, x27, lsl #4
    aa8c:	b9802ec9 	ldrsw	x9, [x22, #44]
    aa90:	3940110a 	ldrb	w10, [x8, #4]
    aa94:	370000ca 	tbnz	w10, #0, aaac <__libc_init@plt-0x20e4>
    aa98:	f9401e6b 	ldr	x11, [x19, #56]
    aa9c:	3dc00100 	ldr	q0, [x8]
    aaa0:	5280002a 	mov	w10, #0x1                   	// #1
    aaa4:	3900110a 	strb	w10, [x8, #4]
    aaa8:	3cbb7960 	str	q0, [x11, x27, lsl #4]
    aaac:	9b097c09 	mul	x9, x0, x9
    aab0:	5280008a 	mov	w10, #0x4                   	// #4
    aab4:	14000038 	b	ab94 <__libc_init@plt-0x1ffc>
    aab8:	d503249f 	bti	j
    aabc:	d10103a0 	sub	x0, x29, #0x40
    aac0:	aa1903e1 	mov	x1, x25
    aac4:	94000294 	bl	b514 <__libc_init@plt-0x167c>
    aac8:	f101801f 	cmp	x0, #0x60
    aacc:	54000ba2 	b.cs	ac40 <__libc_init@plt-0x1f50>  // b.hs, b.nlast
    aad0:	aa0003fb 	mov	x27, x0
    aad4:	d10103a0 	sub	x0, x29, #0x40
    aad8:	aa1903e1 	mov	x1, x25
    aadc:	9400028e 	bl	b514 <__libc_init@plt-0x167c>
    aae0:	8b1b1308 	add	x8, x24, x27, lsl #4
    aae4:	b9802ec9 	ldrsw	x9, [x22, #44]
    aae8:	3940110a 	ldrb	w10, [x8, #4]
    aaec:	370000ca 	tbnz	w10, #0, ab04 <__libc_init@plt-0x208c>
    aaf0:	f9401e6b 	ldr	x11, [x19, #56]
    aaf4:	3dc00100 	ldr	q0, [x8]
    aaf8:	5280002a 	mov	w10, #0x1                   	// #1
    aafc:	3900110a 	strb	w10, [x8, #4]
    ab00:	3cbb7960 	str	q0, [x11, x27, lsl #4]
    ab04:	9b09fc09 	mneg	x9, x0, x9
    ab08:	14000022 	b	ab90 <__libc_init@plt-0x2000>
    ab0c:	d503249f 	bti	j
    ab10:	53067d48 	lsr	w8, w10, #6
    ab14:	9240155b 	and	x27, x10, #0x3f
    ab18:	7100051f 	cmp	w8, #0x1
    ab1c:	5400016d 	b.le	ab48 <__libc_init@plt-0x2048>
    ab20:	71000d1f 	cmp	w8, #0x3
    ab24:	540001c1 	b.ne	ab5c <__libc_init@plt-0x2034>  // b.any
    ab28:	8b1b1308 	add	x8, x24, x27, lsl #4
    ab2c:	39401109 	ldrb	w9, [x8, #4]
    ab30:	7100053f 	cmp	w9, #0x1
    ab34:	54000341 	b.ne	ab9c <__libc_init@plt-0x1ff4>  // b.any
    ab38:	f9401e69 	ldr	x9, [x19, #56]
    ab3c:	3cfb7920 	ldr	q0, [x9, x27, lsl #4]
    ab40:	3d800100 	str	q0, [x8]
    ab44:	14000016 	b	ab9c <__libc_init@plt-0x1ff4>
    ab48:	54001021 	b.ne	ad4c <__libc_init@plt-0x1e44>  // b.any
    ab4c:	b9402ac8 	ldr	w8, [x22, #40]
    ab50:	1b1b7d08 	mul	w8, w8, w27
    ab54:	8b08035a 	add	x26, x26, x8
    ab58:	14000011 	b	ab9c <__libc_init@plt-0x1ff4>
    ab5c:	d10103a0 	sub	x0, x29, #0x40
    ab60:	aa1903e1 	mov	x1, x25
    ab64:	9400026c 	bl	b514 <__libc_init@plt-0x167c>
    ab68:	8b3b5308 	add	x8, x24, w27, uxtw #4
    ab6c:	b9802ec9 	ldrsw	x9, [x22, #44]
    ab70:	3940110a 	ldrb	w10, [x8, #4]
    ab74:	370000ca 	tbnz	w10, #0, ab8c <__libc_init@plt-0x2004>
    ab78:	5280002a 	mov	w10, #0x1                   	// #1
    ab7c:	3dc00100 	ldr	q0, [x8]
    ab80:	3900110a 	strb	w10, [x8, #4]
    ab84:	f9401e6a 	ldr	x10, [x19, #56]
    ab88:	3cbb5940 	str	q0, [x10, w27, uxtw #4]
    ab8c:	9b097c09 	mul	x9, x0, x9
    ab90:	5280004a 	mov	w10, #0x2                   	// #2
    ab94:	b900010a 	str	w10, [x8]
    ab98:	f9000509 	str	x9, [x8, #8]
    ab9c:	d503249f 	bti	j
    aba0:	f85c03a9 	ldur	x9, [x29, #-64]
    aba4:	eb19013f 	cmp	x9, x25
    aba8:	54ffc2a2 	b.cs	a3fc <__libc_init@plt-0x2794>  // b.hs, b.nlast
    abac:	eb15035f 	cmp	x26, x21
    abb0:	54ffc3e3 	b.cc	a42c <__libc_init@plt-0x2764>  // b.lo, b.ul, b.last
    abb4:	17fffe12 	b	a3fc <__libc_init@plt-0x2794>
    abb8:	52800020 	mov	w0, #0x1                   	// #1
    abbc:	14000065 	b	ad50 <__libc_init@plt-0x1e40>
    abc0:	f0000028 	adrp	x8, 11000 <fwrite@plt+0x4110>
    abc4:	90ffffc0 	adrp	x0, 2000 <__libc_init@plt-0xab90>
    abc8:	91368000 	add	x0, x0, #0xda0
    abcc:	f942d108 	ldr	x8, [x8, #1440]
    abd0:	528008a1 	mov	w1, #0x45                  	// #69
    abd4:	9104c103 	add	x3, x8, #0x130
    abd8:	14000057 	b	ad34 <__libc_init@plt-0x1e5c>
    abdc:	f0000028 	adrp	x8, 11000 <fwrite@plt+0x4110>
    abe0:	90ffffc0 	adrp	x0, 2000 <__libc_init@plt-0xab90>
    abe4:	913d1800 	add	x0, x0, #0xf46
    abe8:	1400002e 	b	aca0 <__libc_init@plt-0x1ef0>
    abec:	f0000028 	adrp	x8, 11000 <fwrite@plt+0x4110>
    abf0:	90ffffc0 	adrp	x0, 2000 <__libc_init@plt-0xab90>
    abf4:	91134800 	add	x0, x0, #0x4d2
    abf8:	f942d108 	ldr	x8, [x8, #1440]
    abfc:	528008c1 	mov	w1, #0x46                  	// #70
    ac00:	9104c103 	add	x3, x8, #0x130
    ac04:	1400004c 	b	ad34 <__libc_init@plt-0x1e5c>
    ac08:	f0000028 	adrp	x8, 11000 <fwrite@plt+0x4110>
    ac0c:	90ffffc0 	adrp	x0, 2000 <__libc_init@plt-0xab90>
    ac10:	910d4c00 	add	x0, x0, #0x353
    ac14:	f942d108 	ldr	x8, [x8, #1440]
    ac18:	528007c1 	mov	w1, #0x3e                  	// #62
    ac1c:	9104c103 	add	x3, x8, #0x130
    ac20:	14000045 	b	ad34 <__libc_init@plt-0x1e5c>
    ac24:	f0000028 	adrp	x8, 11000 <fwrite@plt+0x4110>
    ac28:	b0ffffc0 	adrp	x0, 3000 <__libc_init@plt-0x9b90>
    ac2c:	9102f000 	add	x0, x0, #0xbc
    ac30:	f942d108 	ldr	x8, [x8, #1440]
    ac34:	52800881 	mov	w1, #0x44                  	// #68
    ac38:	9104c103 	add	x3, x8, #0x130
    ac3c:	1400003e 	b	ad34 <__libc_init@plt-0x1e5c>
    ac40:	f0000028 	adrp	x8, 11000 <fwrite@plt+0x4110>
    ac44:	90ffffc0 	adrp	x0, 2000 <__libc_init@plt-0xab90>
    ac48:	913a6800 	add	x0, x0, #0xe9a
    ac4c:	f942d108 	ldr	x8, [x8, #1440]
    ac50:	52800a61 	mov	w1, #0x53                  	// #83
    ac54:	9104c103 	add	x3, x8, #0x130
    ac58:	14000037 	b	ad34 <__libc_init@plt-0x1e5c>
    ac5c:	f0000028 	adrp	x8, 11000 <fwrite@plt+0x4110>
    ac60:	90ffffc0 	adrp	x0, 2000 <__libc_init@plt-0xab90>
    ac64:	913c1800 	add	x0, x0, #0xf06
    ac68:	f942d108 	ldr	x8, [x8, #1440]
    ac6c:	528007e1 	mov	w1, #0x3f                  	// #63
    ac70:	9104c103 	add	x3, x8, #0x130
    ac74:	14000030 	b	ad34 <__libc_init@plt-0x1e5c>
    ac78:	f0000028 	adrp	x8, 11000 <fwrite@plt+0x4110>
    ac7c:	90ffffc0 	adrp	x0, 2000 <__libc_init@plt-0xab90>
    ac80:	91246800 	add	x0, x0, #0x91a
    ac84:	f942d108 	ldr	x8, [x8, #1440]
    ac88:	52800921 	mov	w1, #0x49                  	// #73
    ac8c:	9104c103 	add	x3, x8, #0x130
    ac90:	14000029 	b	ad34 <__libc_init@plt-0x1e5c>
    ac94:	f0000028 	adrp	x8, 11000 <fwrite@plt+0x4110>
    ac98:	90ffffc0 	adrp	x0, 2000 <__libc_init@plt-0xab90>
    ac9c:	91339000 	add	x0, x0, #0xce4
    aca0:	f942d108 	ldr	x8, [x8, #1440]
    aca4:	9104c103 	add	x3, x8, #0x130
    aca8:	528008e1 	mov	w1, #0x47                  	// #71
    acac:	14000022 	b	ad34 <__libc_init@plt-0x1e5c>
    acb0:	f0000028 	adrp	x8, 11000 <fwrite@plt+0x4110>
    acb4:	90ffffc0 	adrp	x0, 2000 <__libc_init@plt-0xab90>
    acb8:	913eac00 	add	x0, x0, #0xfab
    acbc:	1400001b 	b	ad28 <__libc_init@plt-0x1e68>
    acc0:	f0000028 	adrp	x8, 11000 <fwrite@plt+0x4110>
    acc4:	90ffffc0 	adrp	x0, 2000 <__libc_init@plt-0xab90>
    acc8:	91223c00 	add	x0, x0, #0x88f
    accc:	14000010 	b	ad0c <__libc_init@plt-0x1e84>
    acd0:	f0000028 	adrp	x8, 11000 <fwrite@plt+0x4110>
    acd4:	90ffffc1 	adrp	x1, 2000 <__libc_init@plt-0xab90>
    acd8:	910e9021 	add	x1, x1, #0x3a4
    acdc:	f942d108 	ldr	x8, [x8, #1440]
    ace0:	aa1b03e2 	mov	x2, x27
    ace4:	9104c100 	add	x0, x8, #0x130
    ace8:	94000856 	bl	ce40 <fprintf@plt>
    acec:	14000014 	b	ad3c <__libc_init@plt-0x1e54>
    acf0:	f0000028 	adrp	x8, 11000 <fwrite@plt+0x4110>
    acf4:	b0ffffc0 	adrp	x0, 3000 <__libc_init@plt-0x9b90>
    acf8:	91057800 	add	x0, x0, #0x15e
    acfc:	14000004 	b	ad0c <__libc_init@plt-0x1e84>
    ad00:	f0000028 	adrp	x8, 11000 <fwrite@plt+0x4110>
    ad04:	90ffffc0 	adrp	x0, 2000 <__libc_init@plt-0xab90>
    ad08:	91110800 	add	x0, x0, #0x442
    ad0c:	f942d108 	ldr	x8, [x8, #1440]
    ad10:	9104c103 	add	x3, x8, #0x130
    ad14:	52800821 	mov	w1, #0x41                  	// #65
    ad18:	14000007 	b	ad34 <__libc_init@plt-0x1e5c>
    ad1c:	f0000028 	adrp	x8, 11000 <fwrite@plt+0x4110>
    ad20:	90ffffc0 	adrp	x0, 2000 <__libc_init@plt-0xab90>
    ad24:	911f1c00 	add	x0, x0, #0x7c7
    ad28:	f942d108 	ldr	x8, [x8, #1440]
    ad2c:	9104c103 	add	x3, x8, #0x130
    ad30:	52800801 	mov	w1, #0x40                  	// #64
    ad34:	52800022 	mov	w2, #0x1                   	// #1
    ad38:	9400086e 	bl	cef0 <fwrite@plt>
    ad3c:	f0000028 	adrp	x8, 11000 <fwrite@plt+0x4110>
    ad40:	f942d108 	ldr	x8, [x8, #1440]
    ad44:	9104c100 	add	x0, x8, #0x130
    ad48:	94000842 	bl	ce50 <fflush@plt>
    ad4c:	2a1f03e0 	mov	w0, wzr
    ad50:	910003bf 	mov	sp, x29
    ad54:	a9454ff4 	ldp	x20, x19, [sp, #80]
    ad58:	a94457f6 	ldp	x22, x21, [sp, #64]
    ad5c:	a9435ff8 	ldp	x24, x23, [sp, #48]
    ad60:	a94267fa 	ldp	x26, x25, [sp, #32]
    ad64:	a9416ffc 	ldp	x28, x27, [sp, #16]
    ad68:	a8c67bfd 	ldp	x29, x30, [sp], #96
    ad6c:	d50323bf 	autiasp
    ad70:	d65f03c0 	ret
    ad74:	f0000034 	adrp	x20, 11000 <fwrite@plt+0x4110>
    ad78:	d503201f 	nop
    ad7c:	70fba8a1 	adr	x1, 2293 <__libc_init@plt-0xa8fd>
    ad80:	f942d294 	ldr	x20, [x20, #1440]
    ad84:	90ffffc2 	adrp	x2, 2000 <__libc_init@plt-0xab90>
    ad88:	912b4442 	add	x2, x2, #0xad1
    ad8c:	90ffffc3 	adrp	x3, 2000 <__libc_init@plt-0xab90>
    ad90:	911a5463 	add	x3, x3, #0x695
    ad94:	9104c280 	add	x0, x20, #0x130
    ad98:	9400082a 	bl	ce40 <fprintf@plt>
    ad9c:	9104c280 	add	x0, x20, #0x130
    ada0:	9400082c 	bl	ce50 <fflush@plt>
    ada4:	9400082f 	bl	ce60 <abort@plt>
    ada8:	f0000034 	adrp	x20, 11000 <fwrite@plt+0x4110>
    adac:	d503201f 	nop
    adb0:	70fba701 	adr	x1, 2293 <__libc_init@plt-0xa8fd>
    adb4:	f942d294 	ldr	x20, [x20, #1440]
    adb8:	90ffffc2 	adrp	x2, 2000 <__libc_init@plt-0xab90>
    adbc:	912b4442 	add	x2, x2, #0xad1
    adc0:	90ffffc3 	adrp	x3, 2000 <__libc_init@plt-0xab90>
    adc4:	911a5463 	add	x3, x3, #0x695
    adc8:	9104c280 	add	x0, x20, #0x130
    adcc:	9400081d 	bl	ce40 <fprintf@plt>
    add0:	9104c280 	add	x0, x20, #0x130
    add4:	9400081f 	bl	ce50 <fflush@plt>
    add8:	94000822 	bl	ce60 <abort@plt>
    addc:	f0000034 	adrp	x20, 11000 <fwrite@plt+0x4110>
    ade0:	d503201f 	nop
    ade4:	70fba561 	adr	x1, 2293 <__libc_init@plt-0xa8fd>
    ade8:	f942d294 	ldr	x20, [x20, #1440]
    adec:	90ffffc2 	adrp	x2, 2000 <__libc_init@plt-0xab90>
    adf0:	912b4442 	add	x2, x2, #0xad1
    adf4:	90ffffc3 	adrp	x3, 2000 <__libc_init@plt-0xab90>
    adf8:	911a5463 	add	x3, x3, #0x695
    adfc:	9104c280 	add	x0, x20, #0x130
    ae00:	94000810 	bl	ce40 <fprintf@plt>
    ae04:	9104c280 	add	x0, x20, #0x130
    ae08:	94000812 	bl	ce50 <fflush@plt>
    ae0c:	94000815 	bl	ce60 <abort@plt>
    ae10:	f0000034 	adrp	x20, 11000 <fwrite@plt+0x4110>
    ae14:	d503201f 	nop
    ae18:	70fba3c1 	adr	x1, 2293 <__libc_init@plt-0xa8fd>
    ae1c:	f942d294 	ldr	x20, [x20, #1440]
    ae20:	90ffffc2 	adrp	x2, 2000 <__libc_init@plt-0xab90>
    ae24:	912b4442 	add	x2, x2, #0xad1
    ae28:	90ffffc3 	adrp	x3, 2000 <__libc_init@plt-0xab90>
    ae2c:	911a5463 	add	x3, x3, #0x695
    ae30:	9104c280 	add	x0, x20, #0x130
    ae34:	94000803 	bl	ce40 <fprintf@plt>
    ae38:	9104c280 	add	x0, x20, #0x130
    ae3c:	94000805 	bl	ce50 <fflush@plt>
    ae40:	94000808 	bl	ce60 <abort@plt>
    ae44:	d503245f 	bti	c
    ae48:	b9400028 	ldr	w8, [x1]
    ae4c:	7100751f 	cmp	w8, #0x1d
    ae50:	540000ec 	b.gt	ae6c <__libc_init@plt-0x1d24>
    ae54:	36f80228 	tbz	w8, #31, ae98 <__libc_init@plt-0x1cf8>
    ae58:	3100091f 	cmn	w8, #0x2
    ae5c:	54000140 	b.eq	ae84 <__libc_init@plt-0x1d0c>  // b.none
    ae60:	3100051f 	cmn	w8, #0x1
    ae64:	54000320 	b.eq	aec8 <__libc_init@plt-0x1cc8>  // b.none
    ae68:	1400002c 	b	af18 <__libc_init@plt-0x1c78>
    ae6c:	71007d1f 	cmp	w8, #0x1f
    ae70:	5400024c 	b.gt	aeb8 <__libc_init@plt-0x1cd8>
    ae74:	7100791f 	cmp	w8, #0x1e
    ae78:	54000320 	b.eq	aedc <__libc_init@plt-0x1cb4>  // b.none
    ae7c:	71007d1f 	cmp	w8, #0x1f
    ae80:	540004c1 	b.ne	af18 <__libc_init@plt-0x1c78>  // b.any
    ae84:	9103e048 	add	x8, x2, #0xf8
    ae88:	f9400108 	ldr	x8, [x8]
    ae8c:	b9800429 	ldrsw	x9, [x1, #4]
    ae90:	8b090100 	add	x0, x8, x9
    ae94:	d65f03c0 	ret
    ae98:	340002c8 	cbz	w8, aef0 <__libc_init@plt-0x1ca0>
    ae9c:	7100751f 	cmp	w8, #0x1d
    aea0:	540003c1 	b.ne	af18 <__libc_init@plt-0x1c78>  // b.any
    aea4:	9103a048 	add	x8, x2, #0xe8
    aea8:	f9400108 	ldr	x8, [x8]
    aeac:	b9800429 	ldrsw	x9, [x1, #4]
    aeb0:	8b090100 	add	x0, x8, x9
    aeb4:	d65f03c0 	ret
    aeb8:	7100891f 	cmp	w8, #0x22
    aebc:	54000240 	b.eq	af04 <__libc_init@plt-0x1c8c>  // b.none
    aec0:	7100811f 	cmp	w8, #0x20
    aec4:	540002a1 	b.ne	af18 <__libc_init@plt-0x1c78>  // b.any
    aec8:	91040048 	add	x8, x2, #0x100
    aecc:	f9400108 	ldr	x8, [x8]
    aed0:	b9800429 	ldrsw	x9, [x1, #4]
    aed4:	8b090100 	add	x0, x8, x9
    aed8:	d65f03c0 	ret
    aedc:	9103c048 	add	x8, x2, #0xf0
    aee0:	f9400108 	ldr	x8, [x8]
    aee4:	b9800429 	ldrsw	x9, [x1, #4]
    aee8:	8b090100 	add	x0, x8, x9
    aeec:	d65f03c0 	ret
    aef0:	f9400428 	ldr	x8, [x1, #8]
    aef4:	aa0003e1 	mov	x1, x0
    aef8:	aa1f03e3 	mov	x3, xzr
    aefc:	aa0803e0 	mov	x0, x8
    af00:	140001f7 	b	b6dc <__libc_init@plt-0x14b4>
    af04:	91042048 	add	x8, x2, #0x108
    af08:	f9400108 	ldr	x8, [x8]
    af0c:	b9800429 	ldrsw	x9, [x1, #4]
    af10:	8b090100 	add	x0, x8, x9
    af14:	d65f03c0 	ret
    af18:	7100711f 	cmp	w8, #0x1c
    af1c:	540000c8 	b.hi	af34 <__libc_init@plt-0x1c5c>  // b.pmore
    af20:	8b080c48 	add	x8, x2, x8, lsl #3
    af24:	f9400108 	ldr	x8, [x8]
    af28:	b9800429 	ldrsw	x9, [x1, #4]
    af2c:	8b090100 	add	x0, x8, x9
    af30:	d65f03c0 	ret
    af34:	d503233f 	paciasp
    af38:	a9be7bfd 	stp	x29, x30, [sp, #-32]!
    af3c:	f9000bf3 	str	x19, [sp, #16]
    af40:	910003fd 	mov	x29, sp
    af44:	f0000033 	adrp	x19, 11000 <fwrite@plt+0x4110>
    af48:	d503201f 	nop
    af4c:	70fb9a21 	adr	x1, 2293 <__libc_init@plt-0xa8fd>
    af50:	f942d273 	ldr	x19, [x19, #1440]
    af54:	90ffffc2 	adrp	x2, 2000 <__libc_init@plt-0xab90>
    af58:	91216842 	add	x2, x2, #0x85a
    af5c:	90ffffc3 	adrp	x3, 2000 <__libc_init@plt-0xab90>
    af60:	9118cc63 	add	x3, x3, #0x633
    af64:	9104c260 	add	x0, x19, #0x130
    af68:	940007b6 	bl	ce40 <fprintf@plt>
    af6c:	9104c260 	add	x0, x19, #0x130
    af70:	940007b8 	bl	ce50 <fflush@plt>
    af74:	940007bb 	bl	ce60 <abort@plt>
    af78:	d503233f 	paciasp
    af7c:	a9be7bfd 	stp	x29, x30, [sp, #-32]!
    af80:	f9000bf3 	str	x19, [sp, #16]
    af84:	910003fd 	mov	x29, sp
    af88:	b9400069 	ldr	w9, [x3]
    af8c:	aa0203e8 	mov	x8, x2
    af90:	7100113f 	cmp	w9, #0x4
    af94:	540001ac 	b.gt	afc8 <__libc_init@plt-0x1bc8>
    af98:	7100053f 	cmp	w9, #0x1
    af9c:	54000420 	b.eq	b020 <__libc_init@plt-0x1b70>  // b.none
    afa0:	7100093f 	cmp	w9, #0x2
    afa4:	54000060 	b.eq	afb0 <__libc_init@plt-0x1be0>  // b.none
    afa8:	71000d3f 	cmp	w9, #0x3
    afac:	54000ba1 	b.ne	b120 <__libc_init@plt-0x1a70>  // b.any
    afb0:	f9400469 	ldr	x9, [x3, #8]
    afb4:	f8686920 	ldr	x0, [x9, x8]
    afb8:	f9400bf3 	ldr	x19, [sp, #16]
    afbc:	a8c27bfd 	ldp	x29, x30, [sp], #32
    afc0:	d50323bf 	autiasp
    afc4:	d65f03c0 	ret
    afc8:	aa0103e2 	mov	x2, x1
    afcc:	7100153f 	cmp	w9, #0x5
    afd0:	54000320 	b.eq	b034 <__libc_init@plt-0x1b5c>  // b.none
    afd4:	aa0003e1 	mov	x1, x0
    afd8:	7100193f 	cmp	w9, #0x6
    afdc:	54000120 	b.eq	b000 <__libc_init@plt-0x1b90>  // b.none
    afe0:	71001d3f 	cmp	w9, #0x7
    afe4:	540009e1 	b.ne	b120 <__libc_init@plt-0x1a70>  // b.any
    afe8:	f9400460 	ldr	x0, [x3, #8]
    afec:	aa0803e3 	mov	x3, x8
    aff0:	f9400bf3 	ldr	x19, [sp, #16]
    aff4:	a8c27bfd 	ldp	x29, x30, [sp], #32
    aff8:	d50323bf 	autiasp
    affc:	140001b8 	b	b6dc <__libc_init@plt-0x14b4>
    b000:	f9400460 	ldr	x0, [x3, #8]
    b004:	aa0803e3 	mov	x3, x8
    b008:	940001b5 	bl	b6dc <__libc_init@plt-0x14b4>
    b00c:	f9400000 	ldr	x0, [x0]
    b010:	f9400bf3 	ldr	x19, [sp, #16]
    b014:	a8c27bfd 	ldp	x29, x30, [sp], #32
    b018:	d50323bf 	autiasp
    b01c:	d65f03c0 	ret
    b020:	aa1f03e0 	mov	x0, xzr
    b024:	f9400bf3 	ldr	x19, [sp, #16]
    b028:	a8c27bfd 	ldp	x29, x30, [sp], #32
    b02c:	d50323bf 	autiasp
    b030:	d65f03c0 	ret
    b034:	f9400468 	ldr	x8, [x3, #8]
    b038:	7100751f 	cmp	w8, #0x1d
    b03c:	5400010d 	b.le	b05c <__libc_init@plt-0x1b34>
    b040:	71007d1f 	cmp	w8, #0x1f
    b044:	5400024c 	b.gt	b08c <__libc_init@plt-0x1b04>
    b048:	7100791f 	cmp	w8, #0x1e
    b04c:	54000520 	b.eq	b0f0 <__libc_init@plt-0x1aa0>  // b.none
    b050:	71007d1f 	cmp	w8, #0x1f
    b054:	54000300 	b.eq	b0b4 <__libc_init@plt-0x1adc>  // b.none
    b058:	1400001d 	b	b0cc <__libc_init@plt-0x1ac4>
    b05c:	3100091f 	cmn	w8, #0x2
    b060:	540002a0 	b.eq	b0b4 <__libc_init@plt-0x1adc>  // b.none
    b064:	3100051f 	cmn	w8, #0x1
    b068:	540001a0 	b.eq	b09c <__libc_init@plt-0x1af4>  // b.none
    b06c:	7100751f 	cmp	w8, #0x1d
    b070:	540002e1 	b.ne	b0cc <__libc_init@plt-0x1ac4>  // b.any
    b074:	9103a048 	add	x8, x2, #0xe8
    b078:	f9400100 	ldr	x0, [x8]
    b07c:	f9400bf3 	ldr	x19, [sp, #16]
    b080:	a8c27bfd 	ldp	x29, x30, [sp], #32
    b084:	d50323bf 	autiasp
    b088:	d65f03c0 	ret
    b08c:	7100891f 	cmp	w8, #0x22
    b090:	540003c0 	b.eq	b108 <__libc_init@plt-0x1a88>  // b.none
    b094:	7100811f 	cmp	w8, #0x20
    b098:	540001a1 	b.ne	b0cc <__libc_init@plt-0x1ac4>  // b.any
    b09c:	91040048 	add	x8, x2, #0x100
    b0a0:	f9400100 	ldr	x0, [x8]
    b0a4:	f9400bf3 	ldr	x19, [sp, #16]
    b0a8:	a8c27bfd 	ldp	x29, x30, [sp], #32
    b0ac:	d50323bf 	autiasp
    b0b0:	d65f03c0 	ret
    b0b4:	9103e048 	add	x8, x2, #0xf8
    b0b8:	f9400100 	ldr	x0, [x8]
    b0bc:	f9400bf3 	ldr	x19, [sp, #16]
    b0c0:	a8c27bfd 	ldp	x29, x30, [sp], #32
    b0c4:	d50323bf 	autiasp
    b0c8:	d65f03c0 	ret
    b0cc:	7100711f 	cmp	w8, #0x1c
    b0d0:	54000428 	b.hi	b154 <__libc_init@plt-0x1a3c>  // b.pmore
    b0d4:	92401108 	and	x8, x8, #0x1f
    b0d8:	8b080c48 	add	x8, x2, x8, lsl #3
    b0dc:	f9400100 	ldr	x0, [x8]
    b0e0:	f9400bf3 	ldr	x19, [sp, #16]
    b0e4:	a8c27bfd 	ldp	x29, x30, [sp], #32
    b0e8:	d50323bf 	autiasp
    b0ec:	d65f03c0 	ret
    b0f0:	9103c048 	add	x8, x2, #0xf0
    b0f4:	f9400100 	ldr	x0, [x8]
    b0f8:	f9400bf3 	ldr	x19, [sp, #16]
    b0fc:	a8c27bfd 	ldp	x29, x30, [sp], #32
    b100:	d50323bf 	autiasp
    b104:	d65f03c0 	ret
    b108:	91042048 	add	x8, x2, #0x108
    b10c:	f9400100 	ldr	x0, [x8]
    b110:	f9400bf3 	ldr	x19, [sp, #16]
    b114:	a8c27bfd 	ldp	x29, x30, [sp], #32
    b118:	d50323bf 	autiasp
    b11c:	d65f03c0 	ret
    b120:	d0000033 	adrp	x19, 11000 <fwrite@plt+0x4110>
    b124:	d503201f 	nop
    b128:	70fb8b41 	adr	x1, 2293 <__libc_init@plt-0xa8fd>
    b12c:	f942d273 	ldr	x19, [x19, #1440]
    b130:	f0ffffa2 	adrp	x2, 2000 <__libc_init@plt-0xab90>
    b134:	9120e042 	add	x2, x2, #0x838
    b138:	f0ffffa3 	adrp	x3, 2000 <__libc_init@plt-0xab90>
    b13c:	91193863 	add	x3, x3, #0x64e
    b140:	9104c260 	add	x0, x19, #0x130
    b144:	9400073f 	bl	ce40 <fprintf@plt>
    b148:	9104c260 	add	x0, x19, #0x130
    b14c:	94000741 	bl	ce50 <fflush@plt>
    b150:	94000744 	bl	ce60 <abort@plt>
    b154:	d0000033 	adrp	x19, 11000 <fwrite@plt+0x4110>
    b158:	d503201f 	nop
    b15c:	70fb89a1 	adr	x1, 2293 <__libc_init@plt-0xa8fd>
    b160:	f942d273 	ldr	x19, [x19, #1440]
    b164:	f0ffffa2 	adrp	x2, 2000 <__libc_init@plt-0xab90>
    b168:	91216842 	add	x2, x2, #0x85a
    b16c:	f0ffffa3 	adrp	x3, 2000 <__libc_init@plt-0xab90>
    b170:	9118cc63 	add	x3, x3, #0x633
    b174:	9104c260 	add	x0, x19, #0x130
    b178:	94000732 	bl	ce40 <fprintf@plt>
    b17c:	9104c260 	add	x0, x19, #0x130
    b180:	94000734 	bl	ce50 <fflush@plt>
    b184:	94000737 	bl	ce60 <abort@plt>
    b188:	d503233f 	paciasp
    b18c:	a9bd7bfd 	stp	x29, x30, [sp, #-48]!
    b190:	f9000bf5 	str	x21, [sp, #16]
    b194:	a9024ff4 	stp	x20, x19, [sp, #32]
    b198:	910003fd 	mov	x29, sp
    b19c:	12000c68 	and	w8, w3, #0xf
    b1a0:	f9400033 	ldr	x19, [x1]
    b1a4:	71000d1f 	cmp	w8, #0x3
    b1a8:	5400014d 	b.le	b1d0 <__libc_init@plt-0x19c0>
    b1ac:	7100251f 	cmp	w8, #0x9
    b1b0:	540004ad 	b.le	b244 <__libc_init@plt-0x194c>
    b1b4:	7100291f 	cmp	w8, #0xa
    b1b8:	54000ae0 	b.eq	b314 <__libc_init@plt-0x187c>  // b.none
    b1bc:	71002d1f 	cmp	w8, #0xb
    b1c0:	54000ba0 	b.eq	b334 <__libc_init@plt-0x185c>  // b.none
    b1c4:	7100311f 	cmp	w8, #0xc
    b1c8:	54000860 	b.eq	b2d4 <__libc_init@plt-0x18bc>  // b.none
    b1cc:	140000c5 	b	b4e0 <__libc_init@plt-0x16b0>
    b1d0:	7100051f 	cmp	w8, #0x1
    b1d4:	5400020c 	b.gt	b214 <__libc_init@plt-0x197c>
    b1d8:	340007e8 	cbz	w8, b2d4 <__libc_init@plt-0x18bc>
    b1dc:	7100051f 	cmp	w8, #0x1
    b1e0:	54001801 	b.ne	b4e0 <__libc_init@plt-0x16b0>  // b.any
    b1e4:	aa0103e0 	mov	x0, x1
    b1e8:	aa0203e1 	mov	x1, x2
    b1ec:	2a0303f4 	mov	w20, w3
    b1f0:	aa0403f5 	mov	x21, x4
    b1f4:	940000c8 	bl	b514 <__libc_init@plt-0x167c>
    b1f8:	aa1503e4 	mov	x4, x21
    b1fc:	2a1403e3 	mov	w3, w20
    b200:	12001e88 	and	w8, w20, #0xff
    b204:	53041908 	ubfx	w8, w8, #4, #3
    b208:	7100051f 	cmp	w8, #0x1
    b20c:	54000a2d 	b.le	b350 <__libc_init@plt-0x1840>
    b210:	1400002b 	b	b2bc <__libc_init@plt-0x18d4>
    b214:	7100091f 	cmp	w8, #0x2
    b218:	540006e0 	b.eq	b2f4 <__libc_init@plt-0x189c>  // b.none
    b21c:	71000d1f 	cmp	w8, #0x3
    b220:	54001601 	b.ne	b4e0 <__libc_init@plt-0x16b0>  // b.any
    b224:	aa1303e8 	mov	x8, x19
    b228:	b8404500 	ldr	w0, [x8], #4
    b22c:	f9000028 	str	x8, [x1]
    b230:	12001c68 	and	w8, w3, #0xff
    b234:	53041908 	ubfx	w8, w8, #4, #3
    b238:	7100051f 	cmp	w8, #0x1
    b23c:	540008ad 	b.le	b350 <__libc_init@plt-0x1840>
    b240:	1400001f 	b	b2bc <__libc_init@plt-0x18d4>
    b244:	7100111f 	cmp	w8, #0x4
    b248:	54000460 	b.eq	b2d4 <__libc_init@plt-0x18bc>  // b.none
    b24c:	7100251f 	cmp	w8, #0x9
    b250:	54001481 	b.ne	b4e0 <__libc_init@plt-0x16b0>  // b.any
    b254:	aa1f03e8 	mov	x8, xzr
    b258:	928000ca 	mov	x10, #0xfffffffffffffff9    	// #-7
    b25c:	aa1303e9 	mov	x9, x19
    b260:	aa1303eb 	mov	x11, x19
    b264:	eb02017f 	cmp	x11, x2
    b268:	54000940 	b.eq	b390 <__libc_init@plt-0x1800>  // b.none
    b26c:	3840156c 	ldrb	w12, [x11], #1
    b270:	91001d4a 	add	x10, x10, #0x7
    b274:	91000529 	add	x9, x9, #0x1
    b278:	9240198d 	and	x13, x12, #0x7f
    b27c:	9aca21ad 	lsl	x13, x13, x10
    b280:	aa0801a8 	orr	x8, x13, x8
    b284:	373fff0c 	tbnz	w12, #7, b264 <__libc_init@plt-0x192c>
    b288:	11001d4b 	add	w11, w10, #0x7
    b28c:	9280000d 	mov	x13, #0xffffffffffffffff    	// #-1
    b290:	f100e55f 	cmp	x10, #0x39
    b294:	528007ea 	mov	w10, #0x3f                  	// #63
    b298:	9acb21ab 	lsl	x11, x13, x11
    b29c:	f9000029 	str	x9, [x1]
    b2a0:	7a4a3180 	ccmp	w12, w10, #0x0, cc	// cc = lo, ul, last
    b2a4:	9a9f816a 	csel	x10, x11, xzr, hi	// hi = pmore
    b2a8:	aa0a0100 	orr	x0, x8, x10
    b2ac:	12001c68 	and	w8, w3, #0xff
    b2b0:	53041908 	ubfx	w8, w8, #4, #3
    b2b4:	7100051f 	cmp	w8, #0x1
    b2b8:	540004cd 	b.le	b350 <__libc_init@plt-0x1840>
    b2bc:	71000d1f 	cmp	w8, #0x3
    b2c0:	5400082c 	b.gt	b3c4 <__libc_init@plt-0x17cc>
    b2c4:	54000a21 	b.ne	b408 <__libc_init@plt-0x1788>  // b.any
    b2c8:	b4000d84 	cbz	x4, b478 <__libc_init@plt-0x1718>
    b2cc:	8b040000 	add	x0, x0, x4
    b2d0:	14000024 	b	b360 <__libc_init@plt-0x1830>
    b2d4:	aa1303e8 	mov	x8, x19
    b2d8:	f8408500 	ldr	x0, [x8], #8
    b2dc:	f9000028 	str	x8, [x1]
    b2e0:	12001c68 	and	w8, w3, #0xff
    b2e4:	53041908 	ubfx	w8, w8, #4, #3
    b2e8:	7100051f 	cmp	w8, #0x1
    b2ec:	5400032d 	b.le	b350 <__libc_init@plt-0x1840>
    b2f0:	17fffff3 	b	b2bc <__libc_init@plt-0x18d4>
    b2f4:	aa1303e8 	mov	x8, x19
    b2f8:	78402500 	ldrh	w0, [x8], #2
    b2fc:	f9000028 	str	x8, [x1]
    b300:	12001c68 	and	w8, w3, #0xff
    b304:	53041908 	ubfx	w8, w8, #4, #3
    b308:	7100051f 	cmp	w8, #0x1
    b30c:	5400022d 	b.le	b350 <__libc_init@plt-0x1840>
    b310:	17ffffeb 	b	b2bc <__libc_init@plt-0x18d4>
    b314:	aa1303e8 	mov	x8, x19
    b318:	78802500 	ldrsh	x0, [x8], #2
    b31c:	f9000028 	str	x8, [x1]
    b320:	12001c68 	and	w8, w3, #0xff
    b324:	53041908 	ubfx	w8, w8, #4, #3
    b328:	7100051f 	cmp	w8, #0x1
    b32c:	5400012d 	b.le	b350 <__libc_init@plt-0x1840>
    b330:	17ffffe3 	b	b2bc <__libc_init@plt-0x18d4>
    b334:	aa1303e8 	mov	x8, x19
    b338:	b8804500 	ldrsw	x0, [x8], #4
    b33c:	f9000028 	str	x8, [x1]
    b340:	12001c68 	and	w8, w3, #0xff
    b344:	53041908 	ubfx	w8, w8, #4, #3
    b348:	7100051f 	cmp	w8, #0x1
    b34c:	54fffb8c 	b.gt	b2bc <__libc_init@plt-0x18d4>
    b350:	34000088 	cbz	w8, b360 <__libc_init@plt-0x1830>
    b354:	7100051f 	cmp	w8, #0x1
    b358:	54000aa1 	b.ne	b4ac <__libc_init@plt-0x16e4>  // b.any
    b35c:	8b130000 	add	x0, x0, x19
    b360:	373800c3 	tbnz	w3, #7, b378 <__libc_init@plt-0x1818>
    b364:	a9424ff4 	ldp	x20, x19, [sp, #32]
    b368:	f9400bf5 	ldr	x21, [sp, #16]
    b36c:	a8c37bfd 	ldp	x29, x30, [sp], #48
    b370:	d50323bf 	autiasp
    b374:	d65f03c0 	ret
    b378:	f9400000 	ldr	x0, [x0]
    b37c:	a9424ff4 	ldp	x20, x19, [sp, #32]
    b380:	f9400bf5 	ldr	x21, [sp, #16]
    b384:	a8c37bfd 	ldp	x29, x30, [sp], #48
    b388:	d50323bf 	autiasp
    b38c:	d65f03c0 	ret
    b390:	d0000033 	adrp	x19, 11000 <fwrite@plt+0x4110>
    b394:	d503201f 	nop
    b398:	70fb77c1 	adr	x1, 2293 <__libc_init@plt-0xa8fd>
    b39c:	f942d273 	ldr	x19, [x19, #1440]
    b3a0:	f0ffffa2 	adrp	x2, 2000 <__libc_init@plt-0xab90>
    b3a4:	912b4442 	add	x2, x2, #0xad1
    b3a8:	f0ffffa3 	adrp	x3, 2000 <__libc_init@plt-0xab90>
    b3ac:	911a5463 	add	x3, x3, #0x695
    b3b0:	9104c260 	add	x0, x19, #0x130
    b3b4:	940006a3 	bl	ce40 <fprintf@plt>
    b3b8:	9104c260 	add	x0, x19, #0x130
    b3bc:	940006a5 	bl	ce50 <fflush@plt>
    b3c0:	940006a8 	bl	ce60 <abort@plt>
    b3c4:	7100111f 	cmp	w8, #0x4
    b3c8:	540003e0 	b.eq	b444 <__libc_init@plt-0x174c>  // b.none
    b3cc:	7100151f 	cmp	w8, #0x5
    b3d0:	540006e1 	b.ne	b4ac <__libc_init@plt-0x16e4>  // b.any
    b3d4:	d0000033 	adrp	x19, 11000 <fwrite@plt+0x4110>
    b3d8:	d503201f 	nop
    b3dc:	70fb75a1 	adr	x1, 2293 <__libc_init@plt-0xa8fd>
    b3e0:	f942d273 	ldr	x19, [x19, #1440]
    b3e4:	90ffffc2 	adrp	x2, 3000 <__libc_init@plt-0x9b90>
    b3e8:	91040442 	add	x2, x2, #0x101
    b3ec:	f0ffffa3 	adrp	x3, 2000 <__libc_init@plt-0xab90>
    b3f0:	91202063 	add	x3, x3, #0x808
    b3f4:	9104c260 	add	x0, x19, #0x130
    b3f8:	94000692 	bl	ce40 <fprintf@plt>
    b3fc:	9104c260 	add	x0, x19, #0x130
    b400:	94000694 	bl	ce50 <fflush@plt>
    b404:	94000697 	bl	ce60 <abort@plt>
    b408:	7100091f 	cmp	w8, #0x2
    b40c:	54000501 	b.ne	b4ac <__libc_init@plt-0x16e4>  // b.any
    b410:	d0000033 	adrp	x19, 11000 <fwrite@plt+0x4110>
    b414:	d503201f 	nop
    b418:	70fb73c1 	adr	x1, 2293 <__libc_init@plt-0xa8fd>
    b41c:	f942d273 	ldr	x19, [x19, #1440]
    b420:	90ffffc2 	adrp	x2, 3000 <__libc_init@plt-0x9b90>
    b424:	91040442 	add	x2, x2, #0x101
    b428:	f0ffffa3 	adrp	x3, 2000 <__libc_init@plt-0xab90>
    b42c:	9134b063 	add	x3, x3, #0xd2c
    b430:	9104c260 	add	x0, x19, #0x130
    b434:	94000683 	bl	ce40 <fprintf@plt>
    b438:	9104c260 	add	x0, x19, #0x130
    b43c:	94000685 	bl	ce50 <fflush@plt>
    b440:	94000688 	bl	ce60 <abort@plt>
    b444:	d0000033 	adrp	x19, 11000 <fwrite@plt+0x4110>
    b448:	d503201f 	nop
    b44c:	70fb7221 	adr	x1, 2293 <__libc_init@plt-0xa8fd>
    b450:	f942d273 	ldr	x19, [x19, #1440]
    b454:	90ffffc2 	adrp	x2, 3000 <__libc_init@plt-0x9b90>
    b458:	91040442 	add	x2, x2, #0x101
    b45c:	f0ffffa3 	adrp	x3, 2000 <__libc_init@plt-0xab90>
    b460:	910a9c63 	add	x3, x3, #0x2a7
    b464:	9104c260 	add	x0, x19, #0x130
    b468:	94000676 	bl	ce40 <fprintf@plt>
    b46c:	9104c260 	add	x0, x19, #0x130
    b470:	94000678 	bl	ce50 <fflush@plt>
    b474:	9400067b 	bl	ce60 <abort@plt>
    b478:	d0000033 	adrp	x19, 11000 <fwrite@plt+0x4110>
    b47c:	d503201f 	nop
    b480:	70fb7081 	adr	x1, 2293 <__libc_init@plt-0xa8fd>
    b484:	f942d273 	ldr	x19, [x19, #1440]
    b488:	90ffffc2 	adrp	x2, 3000 <__libc_init@plt-0x9b90>
    b48c:	91040442 	add	x2, x2, #0x101
    b490:	f0ffffa3 	adrp	x3, 2000 <__libc_init@plt-0xab90>
    b494:	9138b063 	add	x3, x3, #0xe2c
    b498:	9104c260 	add	x0, x19, #0x130
    b49c:	94000669 	bl	ce40 <fprintf@plt>
    b4a0:	9104c260 	add	x0, x19, #0x130
    b4a4:	9400066b 	bl	ce50 <fflush@plt>
    b4a8:	9400066e 	bl	ce60 <abort@plt>
    b4ac:	d0000033 	adrp	x19, 11000 <fwrite@plt+0x4110>
    b4b0:	d503201f 	nop
    b4b4:	70fb6ee1 	adr	x1, 2293 <__libc_init@plt-0xa8fd>
    b4b8:	f942d273 	ldr	x19, [x19, #1440]
    b4bc:	90ffffc2 	adrp	x2, 3000 <__libc_init@plt-0x9b90>
    b4c0:	91040442 	add	x2, x2, #0x101
    b4c4:	f0ffffa3 	adrp	x3, 2000 <__libc_init@plt-0xab90>
    b4c8:	912ae063 	add	x3, x3, #0xab8
    b4cc:	9104c260 	add	x0, x19, #0x130
    b4d0:	9400065c 	bl	ce40 <fprintf@plt>
    b4d4:	9104c260 	add	x0, x19, #0x130
    b4d8:	9400065e 	bl	ce50 <fflush@plt>
    b4dc:	94000661 	bl	ce60 <abort@plt>
    b4e0:	d0000033 	adrp	x19, 11000 <fwrite@plt+0x4110>
    b4e4:	d503201f 	nop
    b4e8:	70fb6d41 	adr	x1, 2293 <__libc_init@plt-0xa8fd>
    b4ec:	f942d273 	ldr	x19, [x19, #1440]
    b4f0:	90ffffc2 	adrp	x2, 3000 <__libc_init@plt-0x9b90>
    b4f4:	91040442 	add	x2, x2, #0x101
    b4f8:	f0ffffa3 	adrp	x3, 2000 <__libc_init@plt-0xab90>
    b4fc:	912ae063 	add	x3, x3, #0xab8
    b500:	9104c260 	add	x0, x19, #0x130
    b504:	9400064f 	bl	ce40 <fprintf@plt>
    b508:	9104c260 	add	x0, x19, #0x130
    b50c:	94000651 	bl	ce50 <fflush@plt>
    b510:	94000654 	bl	ce60 <abort@plt>
    b514:	d503233f 	paciasp
    b518:	a9be7bfd 	stp	x29, x30, [sp, #-32]!
    b51c:	f9000bf3 	str	x19, [sp, #16]
    b520:	910003fd 	mov	x29, sp
    b524:	f9400009 	ldr	x9, [x0]
    b528:	eb01013f 	cmp	x9, x1
    b52c:	54000a40 	b.eq	b674 <__libc_init@plt-0x151c>  // b.none
    b530:	aa0903ea 	mov	x10, x9
    b534:	aa0003e8 	mov	x8, x0
    b538:	3840154b 	ldrb	w11, [x10], #1
    b53c:	92401960 	and	x0, x11, #0x7f
    b540:	373800cb 	tbnz	w11, #7, b558 <__libc_init@plt-0x1638>
    b544:	f900010a 	str	x10, [x8]
    b548:	f9400bf3 	ldr	x19, [sp, #16]
    b54c:	a8c27bfd 	ldp	x29, x30, [sp], #32
    b550:	d50323bf 	autiasp
    b554:	d65f03c0 	ret
    b558:	eb01015f 	cmp	x10, x1
    b55c:	540008c0 	b.eq	b674 <__libc_init@plt-0x151c>  // b.none
    b560:	39c0052b 	ldrsb	w11, [x9, #1]
    b564:	1200196a 	and	w10, w11, #0x7f
    b568:	aa0a1c00 	orr	x0, x0, x10, lsl #7
    b56c:	9100092a 	add	x10, x9, #0x2
    b570:	36fffeab 	tbz	w11, #31, b544 <__libc_init@plt-0x164c>
    b574:	eb01015f 	cmp	x10, x1
    b578:	540007e0 	b.eq	b674 <__libc_init@plt-0x151c>  // b.none
    b57c:	39c0092b 	ldrsb	w11, [x9, #2]
    b580:	1200196a 	and	w10, w11, #0x7f
    b584:	aa0a3800 	orr	x0, x0, x10, lsl #14
    b588:	91000d2a 	add	x10, x9, #0x3
    b58c:	36fffdcb 	tbz	w11, #31, b544 <__libc_init@plt-0x164c>
    b590:	eb01015f 	cmp	x10, x1
    b594:	54000700 	b.eq	b674 <__libc_init@plt-0x151c>  // b.none
    b598:	39c00d2b 	ldrsb	w11, [x9, #3]
    b59c:	1200196a 	and	w10, w11, #0x7f
    b5a0:	aa0a5400 	orr	x0, x0, x10, lsl #21
    b5a4:	9100112a 	add	x10, x9, #0x4
    b5a8:	36fffceb 	tbz	w11, #31, b544 <__libc_init@plt-0x164c>
    b5ac:	eb01015f 	cmp	x10, x1
    b5b0:	54000620 	b.eq	b674 <__libc_init@plt-0x151c>  // b.none
    b5b4:	39c0112b 	ldrsb	w11, [x9, #4]
    b5b8:	1200196a 	and	w10, w11, #0x7f
    b5bc:	aa0a7000 	orr	x0, x0, x10, lsl #28
    b5c0:	9100152a 	add	x10, x9, #0x5
    b5c4:	36fffc0b 	tbz	w11, #31, b544 <__libc_init@plt-0x164c>
    b5c8:	eb01015f 	cmp	x10, x1
    b5cc:	54000540 	b.eq	b674 <__libc_init@plt-0x151c>  // b.none
    b5d0:	39c0152b 	ldrsb	w11, [x9, #5]
    b5d4:	1200196a 	and	w10, w11, #0x7f
    b5d8:	aa0a8c00 	orr	x0, x0, x10, lsl #35
    b5dc:	9100192a 	add	x10, x9, #0x6
    b5e0:	36fffb2b 	tbz	w11, #31, b544 <__libc_init@plt-0x164c>
    b5e4:	eb01015f 	cmp	x10, x1
    b5e8:	54000460 	b.eq	b674 <__libc_init@plt-0x151c>  // b.none
    b5ec:	39c0192b 	ldrsb	w11, [x9, #6]
    b5f0:	1200196a 	and	w10, w11, #0x7f
    b5f4:	aa0aa800 	orr	x0, x0, x10, lsl #42
    b5f8:	91001d2a 	add	x10, x9, #0x7
    b5fc:	36fffa4b 	tbz	w11, #31, b544 <__libc_init@plt-0x164c>
    b600:	eb01015f 	cmp	x10, x1
    b604:	54000380 	b.eq	b674 <__libc_init@plt-0x151c>  // b.none
    b608:	39c01d2b 	ldrsb	w11, [x9, #7]
    b60c:	1200196a 	and	w10, w11, #0x7f
    b610:	aa0ac400 	orr	x0, x0, x10, lsl #49
    b614:	9100212a 	add	x10, x9, #0x8
    b618:	36fff96b 	tbz	w11, #31, b544 <__libc_init@plt-0x164c>
    b61c:	eb01015f 	cmp	x10, x1
    b620:	540002a0 	b.eq	b674 <__libc_init@plt-0x151c>  // b.none
    b624:	39c0212b 	ldrsb	w11, [x9, #8]
    b628:	1200196a 	and	w10, w11, #0x7f
    b62c:	aa0ae000 	orr	x0, x0, x10, lsl #56
    b630:	9100252a 	add	x10, x9, #0x9
    b634:	36fff88b 	tbz	w11, #31, b544 <__libc_init@plt-0x164c>
    b638:	eb01015f 	cmp	x10, x1
    b63c:	540001c0 	b.eq	b674 <__libc_init@plt-0x151c>  // b.none
    b640:	3940014b 	ldrb	w11, [x10]
    b644:	721f157f 	tst	w11, #0x7e
    b648:	54000301 	b.ne	b6a8 <__libc_init@plt-0x14e8>  // b.any
    b64c:	9100292a 	add	x10, x9, #0xa
    b650:	373800eb 	tbnz	w11, #7, b66c <__libc_init@plt-0x1524>
    b654:	aa0bfc00 	orr	x0, x0, x11, lsl #63
    b658:	f900010a 	str	x10, [x8]
    b65c:	f9400bf3 	ldr	x19, [sp, #16]
    b660:	a8c27bfd 	ldp	x29, x30, [sp], #32
    b664:	d50323bf 	autiasp
    b668:	d65f03c0 	ret
    b66c:	eb01015f 	cmp	x10, x1
    b670:	540001c1 	b.ne	b6a8 <__libc_init@plt-0x14e8>  // b.any
    b674:	d0000033 	adrp	x19, 11000 <fwrite@plt+0x4110>
    b678:	d503201f 	nop
    b67c:	70fb60a1 	adr	x1, 2293 <__libc_init@plt-0xa8fd>
    b680:	f942d273 	ldr	x19, [x19, #1440]
    b684:	f0ffffa2 	adrp	x2, 2000 <__libc_init@plt-0xab90>
    b688:	91130442 	add	x2, x2, #0x4c1
    b68c:	f0ffffa3 	adrp	x3, 2000 <__libc_init@plt-0xab90>
    b690:	91168063 	add	x3, x3, #0x5a0
    b694:	9104c260 	add	x0, x19, #0x130
    b698:	940005ea 	bl	ce40 <fprintf@plt>
    b69c:	9104c260 	add	x0, x19, #0x130
    b6a0:	940005ec 	bl	ce50 <fflush@plt>
    b6a4:	940005ef 	bl	ce60 <abort@plt>
    b6a8:	d0000033 	adrp	x19, 11000 <fwrite@plt+0x4110>
    b6ac:	d503201f 	nop
    b6b0:	70fb5f01 	adr	x1, 2293 <__libc_init@plt-0xa8fd>
    b6b4:	f942d273 	ldr	x19, [x19, #1440]
    b6b8:	f0ffffa2 	adrp	x2, 2000 <__libc_init@plt-0xab90>
    b6bc:	91130442 	add	x2, x2, #0x4c1
    b6c0:	f0ffffa3 	adrp	x3, 2000 <__libc_init@plt-0xab90>
    b6c4:	911cf063 	add	x3, x3, #0x73c
    b6c8:	9104c260 	add	x0, x19, #0x130
    b6cc:	940005dd 	bl	ce40 <fprintf@plt>
    b6d0:	9104c260 	add	x0, x19, #0x130
    b6d4:	940005df 	bl	ce50 <fflush@plt>
    b6d8:	940005e2 	bl	ce60 <abort@plt>
    b6dc:	d503233f 	paciasp
    b6e0:	a9ba7bfd 	stp	x29, x30, [sp, #-96]!
    b6e4:	a9016ffc 	stp	x28, x27, [sp, #16]
    b6e8:	a90267fa 	stp	x26, x25, [sp, #32]
    b6ec:	a9035ff8 	stp	x24, x23, [sp, #48]
    b6f0:	a90457f6 	stp	x22, x21, [sp, #64]
    b6f4:	a9054ff4 	stp	x20, x19, [sp, #80]
    b6f8:	910003fd 	mov	x29, sp
    b6fc:	d10cc3ff 	sub	sp, sp, #0x330
    b700:	aa0003e8 	mov	x8, x0
    b704:	f81f83a0 	stur	x0, [x29, #-8]
    b708:	d10023a0 	sub	x0, x29, #0x8
    b70c:	91005101 	add	x1, x8, #0x14
    b710:	aa0303f5 	mov	x21, x3
    b714:	aa0203f3 	mov	x19, x2
    b718:	97ffff7f 	bl	b514 <__libc_init@plt-0x167c>
    b71c:	f85f83aa 	ldur	x10, [x29, #-8]
    b720:	f9000bf5 	str	x21, [sp, #16]
    b724:	8b000154 	add	x20, x10, x0
    b728:	eb14015f 	cmp	x10, x20
    b72c:	540039c2 	b.cs	be64 <__libc_init@plt-0xd2c>  // b.hs, b.nlast
    b730:	910023e8 	add	x8, sp, #0x8
    b734:	9103c275 	add	x21, x19, #0xf0
    b738:	9103a276 	add	x22, x19, #0xe8
    b73c:	91042277 	add	x23, x19, #0x108
    b740:	9103e278 	add	x24, x19, #0xf8
    b744:	9100211b 	add	x27, x8, #0x8
    b748:	91040279 	add	x25, x19, #0x100
    b74c:	d503201f 	nop
    b750:	50fbd89a 	adr	x26, 3262 <__libc_init@plt-0x992e>
    b754:	14000006 	b	b76c <__libc_init@plt-0x1424>
    b758:	f9400108 	ldr	x8, [x8]
    b75c:	f8008f68 	str	x8, [x27, #8]!
    b760:	f85f83aa 	ldur	x10, [x29, #-8]
    b764:	eb14015f 	cmp	x10, x20
    b768:	540037c2 	b.cs	be60 <__libc_init@plt-0xd30>  // b.hs, b.nlast
    b76c:	91000548 	add	x8, x10, #0x1
    b770:	f81f83a8 	stur	x8, [x29, #-8]
    b774:	39400149 	ldrb	w9, [x10]
    b778:	51000d2b 	sub	w11, w9, #0x3
    b77c:	7102457f 	cmp	w11, #0x91
    b780:	54003ee8 	b.hi	bf5c <__libc_init@plt-0xc34>  // b.pmore
    b784:	1000008c 	adr	x12, b794 <__libc_init@plt-0x13fc>
    b788:	786b7b4d 	ldrh	w13, [x26, x11, lsl #1]
    b78c:	8b0d098c 	add	x12, x12, x13, lsl #2
    b790:	d61f0180 	br	x12
    b794:	d503249f 	bti	j
    b798:	5100c128 	sub	w8, w9, #0x30
    b79c:	17fffff0 	b	b75c <__libc_init@plt-0x1434>
    b7a0:	d503249f 	bti	j
    b7a4:	aa1f03ea 	mov	x10, xzr
    b7a8:	5101c12b 	sub	w11, w9, #0x70
    b7ac:	928000cc 	mov	x12, #0xfffffffffffffff9    	// #-7
    b7b0:	aa0803ed 	mov	x13, x8
    b7b4:	eb1401bf 	cmp	x13, x20
    b7b8:	540036a0 	b.eq	be8c <__libc_init@plt-0xd04>  // b.none
    b7bc:	384015ae 	ldrb	w14, [x13], #1
    b7c0:	91001d8c 	add	x12, x12, #0x7
    b7c4:	91000508 	add	x8, x8, #0x1
    b7c8:	924019cf 	and	x15, x14, #0x7f
    b7cc:	9acc21ef 	lsl	x15, x15, x12
    b7d0:	aa0a01ea 	orr	x10, x15, x10
    b7d4:	373fff0e 	tbnz	w14, #7, b7b4 <__libc_init@plt-0x13dc>
    b7d8:	11001d8d 	add	w13, w12, #0x7
    b7dc:	9280000f 	mov	x15, #0xffffffffffffffff    	// #-1
    b7e0:	f100e59f 	cmp	x12, #0x39
    b7e4:	528007ec 	mov	w12, #0x3f                  	// #63
    b7e8:	9acd21ed 	lsl	x13, x15, x13
    b7ec:	f81f83a8 	stur	x8, [x29, #-8]
    b7f0:	7a4c31c0 	ccmp	w14, w12, #0x0, cc	// cc = lo, ul, last
    b7f4:	9a9f81ac 	csel	x12, x13, xzr, hi	// hi = pmore
    b7f8:	7102353f 	cmp	w9, #0x8d
    b7fc:	540002ed 	b.le	b858 <__libc_init@plt-0x1338>
    b800:	71023d3f 	cmp	w9, #0x8f
    b804:	540003ec 	b.gt	b880 <__libc_init@plt-0x1310>
    b808:	7102393f 	cmp	w9, #0x8e
    b80c:	aa1503e8 	mov	x8, x21
    b810:	540004a0 	b.eq	b8a4 <__libc_init@plt-0x12ec>  // b.none
    b814:	71023d3f 	cmp	w9, #0x8f
    b818:	aa1803e8 	mov	x8, x24
    b81c:	54000440 	b.eq	b8a4 <__libc_init@plt-0x12ec>  // b.none
    b820:	1400001e 	b	b898 <__libc_init@plt-0x12f8>
    b824:	d503249f 	bti	j
    b828:	7101bd3f 	cmp	w9, #0x6f
    b82c:	aa1803e8 	mov	x8, x24
    b830:	54fff940 	b.eq	b758 <__libc_init@plt-0x1438>  // b.none
    b834:	7101b93f 	cmp	w9, #0x6e
    b838:	aa1503e8 	mov	x8, x21
    b83c:	54fff8e0 	b.eq	b758 <__libc_init@plt-0x1438>  // b.none
    b840:	7101b53f 	cmp	w9, #0x6d
    b844:	aa1603e8 	mov	x8, x22
    b848:	54fff880 	b.eq	b758 <__libc_init@plt-0x1438>  // b.none
    b84c:	51014128 	sub	w8, w9, #0x50
    b850:	8b284e68 	add	x8, x19, w8, uxtw #3
    b854:	17ffffc1 	b	b758 <__libc_init@plt-0x1438>
    b858:	7101b93f 	cmp	w9, #0x6e
    b85c:	aa1803e8 	mov	x8, x24
    b860:	54000220 	b.eq	b8a4 <__libc_init@plt-0x12ec>  // b.none
    b864:	7101bd3f 	cmp	w9, #0x6f
    b868:	aa1903e8 	mov	x8, x25
    b86c:	540001c0 	b.eq	b8a4 <__libc_init@plt-0x12ec>  // b.none
    b870:	7102353f 	cmp	w9, #0x8d
    b874:	aa1603e8 	mov	x8, x22
    b878:	54000160 	b.eq	b8a4 <__libc_init@plt-0x12ec>  // b.none
    b87c:	14000007 	b	b898 <__libc_init@plt-0x12f8>
    b880:	7102413f 	cmp	w9, #0x90
    b884:	aa1903e8 	mov	x8, x25
    b888:	540000e0 	b.eq	b8a4 <__libc_init@plt-0x12ec>  // b.none
    b88c:	7102493f 	cmp	w9, #0x92
    b890:	aa1703e8 	mov	x8, x23
    b894:	54000080 	b.eq	b8a4 <__libc_init@plt-0x12ec>  // b.none
    b898:	7100717f 	cmp	w11, #0x1c
    b89c:	54003468 	b.hi	bf28 <__libc_init@plt-0xc68>  // b.pmore
    b8a0:	8b2b4e68 	add	x8, x19, w11, uxtw #3
    b8a4:	f9400108 	ldr	x8, [x8]
    b8a8:	aa0c0149 	orr	x9, x10, x12
    b8ac:	8b090108 	add	x8, x8, x9
    b8b0:	17ffffab 	b	b75c <__libc_init@plt-0x1434>
    b8b4:	d503249f 	bti	j
    b8b8:	f8401148 	ldur	x8, [x10, #1]
    b8bc:	91002549 	add	x9, x10, #0x9
    b8c0:	140000c1 	b	bbc4 <__libc_init@plt-0xfcc>
    b8c4:	d503249f 	bti	j
    b8c8:	d10023a0 	sub	x0, x29, #0x8
    b8cc:	aa1403e1 	mov	x1, x20
    b8d0:	97ffff11 	bl	b514 <__libc_init@plt-0x167c>
    b8d4:	f85f83aa 	ldur	x10, [x29, #-8]
    b8d8:	aa1f03e8 	mov	x8, xzr
    b8dc:	928000c9 	mov	x9, #0xfffffffffffffff9    	// #-7
    b8e0:	aa0a03eb 	mov	x11, x10
    b8e4:	eb14017f 	cmp	x11, x20
    b8e8:	54002ec0 	b.eq	bec0 <__libc_init@plt-0xcd0>  // b.none
    b8ec:	3840156c 	ldrb	w12, [x11], #1
    b8f0:	91001d29 	add	x9, x9, #0x7
    b8f4:	9100054a 	add	x10, x10, #0x1
    b8f8:	9240198d 	and	x13, x12, #0x7f
    b8fc:	9ac921ad 	lsl	x13, x13, x9
    b900:	aa0801a8 	orr	x8, x13, x8
    b904:	373fff0c 	tbnz	w12, #7, b8e4 <__libc_init@plt-0x12ac>
    b908:	11001d2b 	add	w11, w9, #0x7
    b90c:	9280000d 	mov	x13, #0xffffffffffffffff    	// #-1
    b910:	f100e53f 	cmp	x9, #0x39
    b914:	528007e9 	mov	w9, #0x3f                  	// #63
    b918:	9acb21ab 	lsl	x11, x13, x11
    b91c:	f81f83aa 	stur	x10, [x29, #-8]
    b920:	7a493180 	ccmp	w12, w9, #0x0, cc	// cc = lo, ul, last
    b924:	9a9f8169 	csel	x9, x11, xzr, hi	// hi = pmore
    b928:	7100741f 	cmp	w0, #0x1d
    b92c:	5400248d 	b.le	bdbc <__libc_init@plt-0xdd4>
    b930:	71007c1f 	cmp	w0, #0x1f
    b934:	540026ec 	b.gt	be10 <__libc_init@plt-0xd80>
    b938:	7100781f 	cmp	w0, #0x1e
    b93c:	aa1503ea 	mov	x10, x21
    b940:	540027c0 	b.eq	be38 <__libc_init@plt-0xd58>  // b.none
    b944:	71007c1f 	cmp	w0, #0x1f
    b948:	aa1803ea 	mov	x10, x24
    b94c:	54002760 	b.eq	be38 <__libc_init@plt-0xd58>  // b.none
    b950:	14000136 	b	be28 <__libc_init@plt-0xd68>
    b954:	d503249f 	bti	j
    b958:	aa1b03e8 	mov	x8, x27
    b95c:	f9400369 	ldr	x9, [x27]
    b960:	f85f8d0a 	ldr	x10, [x8, #-8]!
    b964:	eb09015f 	cmp	x10, x9
    b968:	1a9f27e9 	cset	w9, cc	// cc = lo, ul, last
    b96c:	140000ed 	b	bd20 <__libc_init@plt-0xe70>
    b970:	d503249f 	bti	j
    b974:	aa1b03e8 	mov	x8, x27
    b978:	f9400369 	ldr	x9, [x27]
    b97c:	f85f8d0a 	ldr	x10, [x8, #-8]!
    b980:	eb09015f 	cmp	x10, x9
    b984:	1a9f87e9 	cset	w9, ls	// ls = plast
    b988:	140000e6 	b	bd20 <__libc_init@plt-0xe70>
    b98c:	d503249f 	bti	j
    b990:	aa1b03e8 	mov	x8, x27
    b994:	f9400369 	ldr	x9, [x27]
    b998:	f85f8d0a 	ldr	x10, [x8, #-8]!
    b99c:	9ac90d4b 	sdiv	x11, x10, x9
    b9a0:	9b09a969 	msub	x9, x11, x9, x10
    b9a4:	140000df 	b	bd20 <__libc_init@plt-0xe70>
    b9a8:	d503249f 	bti	j
    b9ac:	aa1b03e8 	mov	x8, x27
    b9b0:	f9400369 	ldr	x9, [x27]
    b9b4:	f85f8d0a 	ldr	x10, [x8, #-8]!
    b9b8:	eb09015f 	cmp	x10, x9
    b9bc:	1a9f17e9 	cset	w9, eq	// eq = none
    b9c0:	140000d8 	b	bd20 <__libc_init@plt-0xe70>
    b9c4:	d503249f 	bti	j
    b9c8:	78801148 	ldursh	x8, [x10, #1]
    b9cc:	91000d49 	add	x9, x10, #0x3
    b9d0:	1400007d 	b	bbc4 <__libc_init@plt-0xfcc>
    b9d4:	d503249f 	bti	j
    b9d8:	f85f876b 	ldr	x11, [x27], #-8
    b9dc:	78801148 	ldursh	x8, [x10, #1]
    b9e0:	91000d49 	add	x9, x10, #0x3
    b9e4:	f81f83a9 	stur	x9, [x29, #-8]
    b9e8:	b4ffebcb 	cbz	x11, b760 <__libc_init@plt-0x1430>
    b9ec:	8b080128 	add	x8, x9, x8
    b9f0:	f81f83a8 	stur	x8, [x29, #-8]
    b9f4:	17ffff5b 	b	b760 <__libc_init@plt-0x1430>
    b9f8:	d503249f 	bti	j
    b9fc:	aa1b03e8 	mov	x8, x27
    ba00:	f9400369 	ldr	x9, [x27]
    ba04:	f85f8d0a 	ldr	x10, [x8, #-8]!
    ba08:	eb09015f 	cmp	x10, x9
    ba0c:	1a9f37e9 	cset	w9, cs	// cs = hs, nlast
    ba10:	140000c4 	b	bd20 <__libc_init@plt-0xe70>
    ba14:	d503249f 	bti	j
    ba18:	aa1f03e9 	mov	x9, xzr
    ba1c:	928000ca 	mov	x10, #0xfffffffffffffff9    	// #-7
    ba20:	aa0803eb 	mov	x11, x8
    ba24:	eb14017f 	cmp	x11, x20
    ba28:	54002660 	b.eq	bef4 <__libc_init@plt-0xc9c>  // b.none
    ba2c:	3840156c 	ldrb	w12, [x11], #1
    ba30:	91001d4a 	add	x10, x10, #0x7
    ba34:	91000508 	add	x8, x8, #0x1
    ba38:	9240198d 	and	x13, x12, #0x7f
    ba3c:	9aca21ad 	lsl	x13, x13, x10
    ba40:	aa0901a9 	orr	x9, x13, x9
    ba44:	373fff0c 	tbnz	w12, #7, ba24 <__libc_init@plt-0x116c>
    ba48:	11001d4b 	add	w11, w10, #0x7
    ba4c:	9280000d 	mov	x13, #0xffffffffffffffff    	// #-1
    ba50:	f100e55f 	cmp	x10, #0x39
    ba54:	528007ea 	mov	w10, #0x3f                  	// #63
    ba58:	9acb21ab 	lsl	x11, x13, x11
    ba5c:	f81f83a8 	stur	x8, [x29, #-8]
    ba60:	7a4a3180 	ccmp	w12, w10, #0x0, cc	// cc = lo, ul, last
    ba64:	9a9f816a 	csel	x10, x11, xzr, hi	// hi = pmore
    ba68:	aa0a0129 	orr	x9, x9, x10
    ba6c:	f8008f69 	str	x9, [x27, #8]!
    ba70:	17ffff3c 	b	b760 <__libc_init@plt-0x1430>
    ba74:	d503249f 	bti	j
    ba78:	aa1b03e8 	mov	x8, x27
    ba7c:	f9400369 	ldr	x9, [x27]
    ba80:	f85f8d0a 	ldr	x10, [x8, #-8]!
    ba84:	8a090149 	and	x9, x10, x9
    ba88:	140000a6 	b	bd20 <__libc_init@plt-0xe70>
    ba8c:	d503249f 	bti	j
    ba90:	aa1b03e8 	mov	x8, x27
    ba94:	f9400369 	ldr	x9, [x27]
    ba98:	f85f8d0a 	ldr	x10, [x8, #-8]!
    ba9c:	eb09015f 	cmp	x10, x9
    baa0:	1a9f97e9 	cset	w9, hi	// hi = pmore
    baa4:	1400009f 	b	bd20 <__libc_init@plt-0xe70>
    baa8:	d503249f 	bti	j
    baac:	b8801148 	ldursw	x8, [x10, #1]
    bab0:	91001549 	add	x9, x10, #0x5
    bab4:	14000044 	b	bbc4 <__libc_init@plt-0xfcc>
    bab8:	d503249f 	bti	j
    babc:	aa1b03e8 	mov	x8, x27
    bac0:	f9400369 	ldr	x9, [x27]
    bac4:	f85f8d0a 	ldr	x10, [x8, #-8]!
    bac8:	ca090149 	eor	x9, x10, x9
    bacc:	14000095 	b	bd20 <__libc_init@plt-0xe70>
    bad0:	d503249f 	bti	j
    bad4:	f9400368 	ldr	x8, [x27]
    bad8:	b6ffe448 	tbz	x8, #63, b760 <__libc_init@plt-0x1430>
    badc:	14000088 	b	bcfc <__libc_init@plt-0xe94>
    bae0:	d503249f 	bti	j
    bae4:	39800548 	ldrsb	x8, [x10, #1]
    bae8:	14000010 	b	bb28 <__libc_init@plt-0x1068>
    baec:	d503249f 	bti	j
    baf0:	f9400368 	ldr	x8, [x27]
    baf4:	17ffff1a 	b	b75c <__libc_init@plt-0x1434>
    baf8:	d503249f 	bti	j
    bafc:	d10023a0 	sub	x0, x29, #0x8
    bb00:	aa1403e1 	mov	x1, x20
    bb04:	97fffe84 	bl	b514 <__libc_init@plt-0x167c>
    bb08:	f8008f60 	str	x0, [x27, #8]!
    bb0c:	17ffff15 	b	b760 <__libc_init@plt-0x1430>
    bb10:	d503249f 	bti	j
    bb14:	b8401148 	ldur	w8, [x10, #1]
    bb18:	91001549 	add	x9, x10, #0x5
    bb1c:	1400002a 	b	bbc4 <__libc_init@plt-0xfcc>
    bb20:	d503249f 	bti	j
    bb24:	39400548 	ldrb	w8, [x10, #1]
    bb28:	91000949 	add	x9, x10, #0x2
    bb2c:	14000026 	b	bbc4 <__libc_init@plt-0xfcc>
    bb30:	d503249f 	bti	j
    bb34:	d100237b 	sub	x27, x27, #0x8
    bb38:	17ffff0a 	b	b760 <__libc_init@plt-0x1430>
    bb3c:	d503249f 	bti	j
    bb40:	78401148 	ldurh	w8, [x10, #1]
    bb44:	91000d49 	add	x9, x10, #0x3
    bb48:	1400001f 	b	bbc4 <__libc_init@plt-0xfcc>
    bb4c:	d503249f 	bti	j
    bb50:	f9400368 	ldr	x8, [x27]
    bb54:	f9400108 	ldr	x8, [x8]
    bb58:	f9000368 	str	x8, [x27]
    bb5c:	17ffff01 	b	b760 <__libc_init@plt-0x1430>
    bb60:	d503249f 	bti	j
    bb64:	3cdf0360 	ldur	q0, [x27, #-16]
    bb68:	f9400368 	ldr	x8, [x27]
    bb6c:	3c9f8360 	stur	q0, [x27, #-8]
    bb70:	f81f0368 	stur	x8, [x27, #-16]
    bb74:	17fffefb 	b	b760 <__libc_init@plt-0x1430>
    bb78:	d503249f 	bti	j
    bb7c:	aa1b03e8 	mov	x8, x27
    bb80:	f9400369 	ldr	x9, [x27]
    bb84:	f85f8d0a 	ldr	x10, [x8, #-8]!
    bb88:	9ac90d49 	sdiv	x9, x10, x9
    bb8c:	14000065 	b	bd20 <__libc_init@plt-0xe70>
    bb90:	d503249f 	bti	j
    bb94:	f85f8368 	ldur	x8, [x27, #-8]
    bb98:	17fffef1 	b	b75c <__libc_init@plt-0x1434>
    bb9c:	d503249f 	bti	j
    bba0:	3cdf8360 	ldur	q0, [x27, #-8]
    bba4:	6e004000 	ext	v0.16b, v0.16b, v0.16b, #8
    bba8:	3c9f8360 	stur	q0, [x27, #-8]
    bbac:	17fffeed 	b	b760 <__libc_init@plt-0x1430>
    bbb0:	d503249f 	bti	j
    bbb4:	39400548 	ldrb	w8, [x10, #1]
    bbb8:	91000949 	add	x9, x10, #0x2
    bbbc:	cb080f68 	sub	x8, x27, x8, lsl #3
    bbc0:	f9400108 	ldr	x8, [x8]
    bbc4:	f81f83a9 	stur	x9, [x29, #-8]
    bbc8:	17fffee5 	b	b75c <__libc_init@plt-0x1434>
    bbcc:	d503249f 	bti	j
    bbd0:	f9400368 	ldr	x8, [x27]
    bbd4:	aa2803e8 	mvn	x8, x8
    bbd8:	f9000368 	str	x8, [x27]
    bbdc:	17fffee1 	b	b760 <__libc_init@plt-0x1430>
    bbe0:	d503249f 	bti	j
    bbe4:	aa1b03e8 	mov	x8, x27
    bbe8:	f9400369 	ldr	x9, [x27]
    bbec:	f85f8d0a 	ldr	x10, [x8, #-8]!
    bbf0:	9ac92149 	lsl	x9, x10, x9
    bbf4:	1400004b 	b	bd20 <__libc_init@plt-0xe70>
    bbf8:	d503249f 	bti	j
    bbfc:	aa1b03e8 	mov	x8, x27
    bc00:	f9400369 	ldr	x9, [x27]
    bc04:	f85f8d0a 	ldr	x10, [x8, #-8]!
    bc08:	9ac92549 	lsr	x9, x10, x9
    bc0c:	14000045 	b	bd20 <__libc_init@plt-0xe70>
    bc10:	d503249f 	bti	j
    bc14:	aa1b03e8 	mov	x8, x27
    bc18:	f9400369 	ldr	x9, [x27]
    bc1c:	f85f8d0a 	ldr	x10, [x8, #-8]!
    bc20:	8b090149 	add	x9, x10, x9
    bc24:	1400003f 	b	bd20 <__libc_init@plt-0xe70>
    bc28:	d503249f 	bti	j
    bc2c:	91000948 	add	x8, x10, #0x2
    bc30:	f81f83a8 	stur	x8, [x29, #-8]
    bc34:	f9400368 	ldr	x8, [x27]
    bc38:	39400549 	ldrb	w9, [x10, #1]
    bc3c:	71000d3f 	cmp	w9, #0x3
    bc40:	54000a0c 	b.gt	bd80 <__libc_init@plt-0xe10>
    bc44:	7100053f 	cmp	w9, #0x1
    bc48:	54001000 	b.eq	be48 <__libc_init@plt-0xd48>  // b.none
    bc4c:	7100093f 	cmp	w9, #0x2
    bc50:	54001da1 	b.ne	c004 <__libc_init@plt-0xb8c>  // b.any
    bc54:	79400108 	ldrh	w8, [x8]
    bc58:	f9000368 	str	x8, [x27]
    bc5c:	17fffec1 	b	b760 <__libc_init@plt-0x1430>
    bc60:	d503249f 	bti	j
    bc64:	d10023a0 	sub	x0, x29, #0x8
    bc68:	aa1403e1 	mov	x1, x20
    bc6c:	97fffe2a 	bl	b514 <__libc_init@plt-0x167c>
    bc70:	f9400368 	ldr	x8, [x27]
    bc74:	8b000108 	add	x8, x8, x0
    bc78:	f9000368 	str	x8, [x27]
    bc7c:	17fffeb9 	b	b760 <__libc_init@plt-0x1430>
    bc80:	d503249f 	bti	j
    bc84:	aa1b03e8 	mov	x8, x27
    bc88:	f9400369 	ldr	x9, [x27]
    bc8c:	f85f8d0a 	ldr	x10, [x8, #-8]!
    bc90:	9ac92949 	asr	x9, x10, x9
    bc94:	14000023 	b	bd20 <__libc_init@plt-0xe70>
    bc98:	d503249f 	bti	j
    bc9c:	f9400368 	ldr	x8, [x27]
    bca0:	f9400108 	ldr	x8, [x8]
    bca4:	f81f8f68 	str	x8, [x27, #-8]!
    bca8:	17fffeae 	b	b760 <__libc_init@plt-0x1430>
    bcac:	d503249f 	bti	j
    bcb0:	aa1b03e8 	mov	x8, x27
    bcb4:	f9400369 	ldr	x9, [x27]
    bcb8:	f85f8d0a 	ldr	x10, [x8, #-8]!
    bcbc:	9b097d49 	mul	x9, x10, x9
    bcc0:	14000018 	b	bd20 <__libc_init@plt-0xe70>
    bcc4:	d503249f 	bti	j
    bcc8:	aa1b03e8 	mov	x8, x27
    bccc:	f9400369 	ldr	x9, [x27]
    bcd0:	f85f8d0a 	ldr	x10, [x8, #-8]!
    bcd4:	cb090149 	sub	x9, x10, x9
    bcd8:	14000012 	b	bd20 <__libc_init@plt-0xe70>
    bcdc:	d503249f 	bti	j
    bce0:	aa1b03e8 	mov	x8, x27
    bce4:	f9400369 	ldr	x9, [x27]
    bce8:	f85f8d0a 	ldr	x10, [x8, #-8]!
    bcec:	aa090149 	orr	x9, x10, x9
    bcf0:	1400000c 	b	bd20 <__libc_init@plt-0xe70>
    bcf4:	d503249f 	bti	j
    bcf8:	f9400368 	ldr	x8, [x27]
    bcfc:	cb0803e8 	neg	x8, x8
    bd00:	f9000368 	str	x8, [x27]
    bd04:	17fffe97 	b	b760 <__libc_init@plt-0x1430>
    bd08:	d503249f 	bti	j
    bd0c:	aa1b03e8 	mov	x8, x27
    bd10:	f9400369 	ldr	x9, [x27]
    bd14:	f85f8d0a 	ldr	x10, [x8, #-8]!
    bd18:	eb09015f 	cmp	x10, x9
    bd1c:	1a9f07e9 	cset	w9, ne	// ne = any
    bd20:	f9000109 	str	x9, [x8]
    bd24:	aa0803fb 	mov	x27, x8
    bd28:	17fffe8e 	b	b760 <__libc_init@plt-0x1430>
    bd2c:	d503249f 	bti	j
    bd30:	78801148 	ldursh	x8, [x10, #1]
    bd34:	8b080148 	add	x8, x10, x8
    bd38:	91000d08 	add	x8, x8, #0x3
    bd3c:	f81f83a8 	stur	x8, [x29, #-8]
    bd40:	17fffe88 	b	b760 <__libc_init@plt-0x1430>
    bd44:	d503249f 	bti	j
    bd48:	d10023a0 	sub	x0, x29, #0x8
    bd4c:	aa1403e1 	mov	x1, x20
    bd50:	97fffdf1 	bl	b514 <__libc_init@plt-0x167c>
    bd54:	7100741f 	cmp	w0, #0x1d
    bd58:	540001ed 	b.le	bd94 <__libc_init@plt-0xdfc>
    bd5c:	71007c1f 	cmp	w0, #0x1f
    bd60:	5400042c 	b.gt	bde4 <__libc_init@plt-0xdac>
    bd64:	7100781f 	cmp	w0, #0x1e
    bd68:	aa1503e8 	mov	x8, x21
    bd6c:	54ffcf60 	b.eq	b758 <__libc_init@plt-0x1438>  // b.none
    bd70:	71007c1f 	cmp	w0, #0x1f
    bd74:	aa1803e8 	mov	x8, x24
    bd78:	54ffcf00 	b.eq	b758 <__libc_init@plt-0x1438>  // b.none
    bd7c:	14000020 	b	bdfc <__libc_init@plt-0xd94>
    bd80:	7100113f 	cmp	w9, #0x4
    bd84:	54000680 	b.eq	be54 <__libc_init@plt-0xd3c>  // b.none
    bd88:	7100213f 	cmp	w9, #0x8
    bd8c:	54ffee40 	b.eq	bb54 <__libc_init@plt-0x103c>  // b.none
    bd90:	1400009d 	b	c004 <__libc_init@plt-0xb8c>
    bd94:	3100081f 	cmn	w0, #0x2
    bd98:	aa1803e8 	mov	x8, x24
    bd9c:	54ffcde0 	b.eq	b758 <__libc_init@plt-0x1438>  // b.none
    bda0:	3100041f 	cmn	w0, #0x1
    bda4:	aa1903e8 	mov	x8, x25
    bda8:	54ffcd80 	b.eq	b758 <__libc_init@plt-0x1438>  // b.none
    bdac:	7100741f 	cmp	w0, #0x1d
    bdb0:	aa1603e8 	mov	x8, x22
    bdb4:	54ffcd20 	b.eq	b758 <__libc_init@plt-0x1438>  // b.none
    bdb8:	14000011 	b	bdfc <__libc_init@plt-0xd94>
    bdbc:	3100081f 	cmn	w0, #0x2
    bdc0:	aa1803ea 	mov	x10, x24
    bdc4:	540003a0 	b.eq	be38 <__libc_init@plt-0xd58>  // b.none
    bdc8:	3100041f 	cmn	w0, #0x1
    bdcc:	aa1903ea 	mov	x10, x25
    bdd0:	54000340 	b.eq	be38 <__libc_init@plt-0xd58>  // b.none
    bdd4:	7100741f 	cmp	w0, #0x1d
    bdd8:	aa1603ea 	mov	x10, x22
    bddc:	540002e0 	b.eq	be38 <__libc_init@plt-0xd58>  // b.none
    bde0:	14000012 	b	be28 <__libc_init@plt-0xd68>
    bde4:	7100801f 	cmp	w0, #0x20
    bde8:	aa1903e8 	mov	x8, x25
    bdec:	54ffcb60 	b.eq	b758 <__libc_init@plt-0x1438>  // b.none
    bdf0:	7100881f 	cmp	w0, #0x22
    bdf4:	aa1703e8 	mov	x8, x23
    bdf8:	54ffcb00 	b.eq	b758 <__libc_init@plt-0x1438>  // b.none
    bdfc:	7100701f 	cmp	w0, #0x1c
    be00:	54001368 	b.hi	c06c <__libc_init@plt-0xb24>  // b.pmore
    be04:	92401008 	and	x8, x0, #0x1f
    be08:	8b080e68 	add	x8, x19, x8, lsl #3
    be0c:	17fffe53 	b	b758 <__libc_init@plt-0x1438>
    be10:	7100801f 	cmp	w0, #0x20
    be14:	aa1903ea 	mov	x10, x25
    be18:	54000100 	b.eq	be38 <__libc_init@plt-0xd58>  // b.none
    be1c:	7100881f 	cmp	w0, #0x22
    be20:	aa1703ea 	mov	x10, x23
    be24:	540000a0 	b.eq	be38 <__libc_init@plt-0xd58>  // b.none
    be28:	7100701f 	cmp	w0, #0x1c
    be2c:	54001068 	b.hi	c038 <__libc_init@plt-0xb58>  // b.pmore
    be30:	9240100a 	and	x10, x0, #0x1f
    be34:	8b0a0e6a 	add	x10, x19, x10, lsl #3
    be38:	f940014a 	ldr	x10, [x10]
    be3c:	aa090108 	orr	x8, x8, x9
    be40:	8b080148 	add	x8, x10, x8
    be44:	17fffe46 	b	b75c <__libc_init@plt-0x1434>
    be48:	39400108 	ldrb	w8, [x8]
    be4c:	f9000368 	str	x8, [x27]
    be50:	17fffe44 	b	b760 <__libc_init@plt-0x1430>
    be54:	b9400108 	ldr	w8, [x8]
    be58:	f9000368 	str	x8, [x27]
    be5c:	17fffe41 	b	b760 <__libc_init@plt-0x1430>
    be60:	f9400375 	ldr	x21, [x27]
    be64:	aa1503e0 	mov	x0, x21
    be68:	910cc3ff 	add	sp, sp, #0x330
    be6c:	a9454ff4 	ldp	x20, x19, [sp, #80]
    be70:	a94457f6 	ldp	x22, x21, [sp, #64]
    be74:	a9435ff8 	ldp	x24, x23, [sp, #48]
    be78:	a94267fa 	ldp	x26, x25, [sp, #32]
    be7c:	a9416ffc 	ldp	x28, x27, [sp, #16]
    be80:	a8c67bfd 	ldp	x29, x30, [sp], #96
    be84:	d50323bf 	autiasp
    be88:	d65f03c0 	ret
    be8c:	d0000033 	adrp	x19, 11000 <fwrite@plt+0x4110>
    be90:	d503201f 	nop
    be94:	70fb1fe1 	adr	x1, 2293 <__libc_init@plt-0xa8fd>
    be98:	f942d273 	ldr	x19, [x19, #1440]
    be9c:	f0ffffa2 	adrp	x2, 2000 <__libc_init@plt-0xab90>
    bea0:	912b4442 	add	x2, x2, #0xad1
    bea4:	f0ffffa3 	adrp	x3, 2000 <__libc_init@plt-0xab90>
    bea8:	911a5463 	add	x3, x3, #0x695
    beac:	9104c260 	add	x0, x19, #0x130
    beb0:	940003e4 	bl	ce40 <fprintf@plt>
    beb4:	9104c260 	add	x0, x19, #0x130
    beb8:	940003e6 	bl	ce50 <fflush@plt>
    bebc:	940003e9 	bl	ce60 <abort@plt>
    bec0:	d0000033 	adrp	x19, 11000 <fwrite@plt+0x4110>
    bec4:	d503201f 	nop
    bec8:	70fb1e41 	adr	x1, 2293 <__libc_init@plt-0xa8fd>
    becc:	f942d273 	ldr	x19, [x19, #1440]
    bed0:	f0ffffa2 	adrp	x2, 2000 <__libc_init@plt-0xab90>
    bed4:	912b4442 	add	x2, x2, #0xad1
    bed8:	f0ffffa3 	adrp	x3, 2000 <__libc_init@plt-0xab90>
    bedc:	911a5463 	add	x3, x3, #0x695
    bee0:	9104c260 	add	x0, x19, #0x130
    bee4:	940003d7 	bl	ce40 <fprintf@plt>
    bee8:	9104c260 	add	x0, x19, #0x130
    beec:	940003d9 	bl	ce50 <fflush@plt>
    bef0:	940003dc 	bl	ce60 <abort@plt>
    bef4:	d0000033 	adrp	x19, 11000 <fwrite@plt+0x4110>
    bef8:	d503201f 	nop
    befc:	70fb1ca1 	adr	x1, 2293 <__libc_init@plt-0xa8fd>
    bf00:	f942d273 	ldr	x19, [x19, #1440]
    bf04:	f0ffffa2 	adrp	x2, 2000 <__libc_init@plt-0xab90>
    bf08:	912b4442 	add	x2, x2, #0xad1
    bf0c:	f0ffffa3 	adrp	x3, 2000 <__libc_init@plt-0xab90>
    bf10:	911a5463 	add	x3, x3, #0x695
    bf14:	9104c260 	add	x0, x19, #0x130
    bf18:	940003ca 	bl	ce40 <fprintf@plt>
    bf1c:	9104c260 	add	x0, x19, #0x130
    bf20:	940003cc 	bl	ce50 <fflush@plt>
    bf24:	940003cf 	bl	ce60 <abort@plt>
    bf28:	d0000033 	adrp	x19, 11000 <fwrite@plt+0x4110>
    bf2c:	d503201f 	nop
    bf30:	70fb1b01 	adr	x1, 2293 <__libc_init@plt-0xa8fd>
    bf34:	f942d273 	ldr	x19, [x19, #1440]
    bf38:	f0ffffa2 	adrp	x2, 2000 <__libc_init@plt-0xab90>
    bf3c:	91216842 	add	x2, x2, #0x85a
    bf40:	f0ffffa3 	adrp	x3, 2000 <__libc_init@plt-0xab90>
    bf44:	9118cc63 	add	x3, x3, #0x633
    bf48:	9104c260 	add	x0, x19, #0x130
    bf4c:	940003bd 	bl	ce40 <fprintf@plt>
    bf50:	9104c260 	add	x0, x19, #0x130
    bf54:	940003bf 	bl	ce50 <fflush@plt>
    bf58:	940003c2 	bl	ce60 <abort@plt>
    bf5c:	d503249f 	bti	j
    bf60:	d0000033 	adrp	x19, 11000 <fwrite@plt+0x4110>
    bf64:	d503201f 	nop
    bf68:	70fb1941 	adr	x1, 2293 <__libc_init@plt-0xa8fd>
    bf6c:	f942d273 	ldr	x19, [x19, #1440]
    bf70:	f0ffffa2 	adrp	x2, 2000 <__libc_init@plt-0xab90>
    bf74:	911bb442 	add	x2, x2, #0x6ed
    bf78:	f0ffffa3 	adrp	x3, 2000 <__libc_init@plt-0xab90>
    bf7c:	91357063 	add	x3, x3, #0xd5c
    bf80:	9104c260 	add	x0, x19, #0x130
    bf84:	940003af 	bl	ce40 <fprintf@plt>
    bf88:	9104c260 	add	x0, x19, #0x130
    bf8c:	940003b1 	bl	ce50 <fflush@plt>
    bf90:	940003b4 	bl	ce60 <abort@plt>
    bf94:	d503249f 	bti	j
    bf98:	d0000033 	adrp	x19, 11000 <fwrite@plt+0x4110>
    bf9c:	d503201f 	nop
    bfa0:	70fb1781 	adr	x1, 2293 <__libc_init@plt-0xa8fd>
    bfa4:	f942d273 	ldr	x19, [x19, #1440]
    bfa8:	f0ffffa2 	adrp	x2, 2000 <__libc_init@plt-0xab90>
    bfac:	911bb442 	add	x2, x2, #0x6ed
    bfb0:	f0ffffa3 	adrp	x3, 2000 <__libc_init@plt-0xab90>
    bfb4:	911ac863 	add	x3, x3, #0x6b2
    bfb8:	9104c260 	add	x0, x19, #0x130
    bfbc:	940003a1 	bl	ce40 <fprintf@plt>
    bfc0:	9104c260 	add	x0, x19, #0x130
    bfc4:	940003a3 	bl	ce50 <fflush@plt>
    bfc8:	940003a6 	bl	ce60 <abort@plt>
    bfcc:	d503249f 	bti	j
    bfd0:	d0000033 	adrp	x19, 11000 <fwrite@plt+0x4110>
    bfd4:	d503201f 	nop
    bfd8:	70fb15c1 	adr	x1, 2293 <__libc_init@plt-0xa8fd>
    bfdc:	f942d273 	ldr	x19, [x19, #1440]
    bfe0:	f0ffffa2 	adrp	x2, 2000 <__libc_init@plt-0xab90>
    bfe4:	911bb442 	add	x2, x2, #0x6ed
    bfe8:	90ffffc3 	adrp	x3, 3000 <__libc_init@plt-0x9b90>
    bfec:	91043463 	add	x3, x3, #0x10d
    bff0:	9104c260 	add	x0, x19, #0x130
    bff4:	94000393 	bl	ce40 <fprintf@plt>
    bff8:	9104c260 	add	x0, x19, #0x130
    bffc:	94000395 	bl	ce50 <fflush@plt>
    c000:	94000398 	bl	ce60 <abort@plt>
    c004:	b0000033 	adrp	x19, 11000 <fwrite@plt+0x4110>
    c008:	d503201f 	nop
    c00c:	70fb1421 	adr	x1, 2293 <__libc_init@plt-0xa8fd>
    c010:	f942d273 	ldr	x19, [x19, #1440]
    c014:	d0ffffa2 	adrp	x2, 2000 <__libc_init@plt-0xab90>
    c018:	911bb442 	add	x2, x2, #0x6ed
    c01c:	d0ffffa3 	adrp	x3, 2000 <__libc_init@plt-0xab90>
    c020:	912b7063 	add	x3, x3, #0xadc
    c024:	9104c260 	add	x0, x19, #0x130
    c028:	94000386 	bl	ce40 <fprintf@plt>
    c02c:	9104c260 	add	x0, x19, #0x130
    c030:	94000388 	bl	ce50 <fflush@plt>
    c034:	9400038b 	bl	ce60 <abort@plt>
    c038:	b0000033 	adrp	x19, 11000 <fwrite@plt+0x4110>
    c03c:	d503201f 	nop
    c040:	70fb1281 	adr	x1, 2293 <__libc_init@plt-0xa8fd>
    c044:	f942d273 	ldr	x19, [x19, #1440]
    c048:	d0ffffa2 	adrp	x2, 2000 <__libc_init@plt-0xab90>
    c04c:	91216842 	add	x2, x2, #0x85a
    c050:	d0ffffa3 	adrp	x3, 2000 <__libc_init@plt-0xab90>
    c054:	9118cc63 	add	x3, x3, #0x633
    c058:	9104c260 	add	x0, x19, #0x130
    c05c:	94000379 	bl	ce40 <fprintf@plt>
    c060:	9104c260 	add	x0, x19, #0x130
    c064:	9400037b 	bl	ce50 <fflush@plt>
    c068:	9400037e 	bl	ce60 <abort@plt>
    c06c:	b0000033 	adrp	x19, 11000 <fwrite@plt+0x4110>
    c070:	d503201f 	nop
    c074:	70fb10e1 	adr	x1, 2293 <__libc_init@plt-0xa8fd>
    c078:	f942d273 	ldr	x19, [x19, #1440]
    c07c:	d0ffffa2 	adrp	x2, 2000 <__libc_init@plt-0xab90>
    c080:	91216842 	add	x2, x2, #0x85a
    c084:	d0ffffa3 	adrp	x3, 2000 <__libc_init@plt-0xab90>
    c088:	9118cc63 	add	x3, x3, #0x633
    c08c:	9104c260 	add	x0, x19, #0x130
    c090:	9400036c 	bl	ce40 <fprintf@plt>
    c094:	9104c260 	add	x0, x19, #0x130
    c098:	9400036e 	bl	ce50 <fflush@plt>
    c09c:	94000371 	bl	ce60 <abort@plt>
    c0a0:	d503233f 	paciasp
    c0a4:	a9ba7bfd 	stp	x29, x30, [sp, #-96]!
    c0a8:	a9016ffc 	stp	x28, x27, [sp, #16]
    c0ac:	a90267fa 	stp	x26, x25, [sp, #32]
    c0b0:	a9035ff8 	stp	x24, x23, [sp, #48]
    c0b4:	a90457f6 	stp	x22, x21, [sp, #64]
    c0b8:	a9054ff4 	stp	x20, x19, [sp, #80]
    c0bc:	910003fd 	mov	x29, sp
    c0c0:	d11a83ff 	sub	sp, sp, #0x6a0
    c0c4:	2a0303f5 	mov	w21, w3
    c0c8:	aa0203f3 	mov	x19, x2
    c0cc:	aa0103f6 	mov	x22, x1
    c0d0:	aa0003f4 	mov	x20, x0
    c0d4:	34000123 	cbz	w3, c0f8 <__libc_init@plt-0xa98>
    c0d8:	a9410e62 	ldp	x2, x3, [x19, #16]
    c0dc:	910123e5 	add	x5, sp, #0x48
    c0e0:	f9400680 	ldr	x0, [x20, #8]
    c0e4:	910043e6 	add	x6, sp, #0x10
    c0e8:	aa1603e1 	mov	x1, x22
    c0ec:	8b354044 	add	x4, x2, w21, uxtw
    c0f0:	94000138 	bl	c5d0 <__libc_init@plt-0x5c0>
    c0f4:	370008e0 	tbnz	w0, #0, c210 <__libc_init@plt-0x980>
    c0f8:	f9401262 	ldr	x2, [x19, #32]
    c0fc:	b4000102 	cbz	x2, c11c <__libc_init@plt-0xa74>
    c100:	f9400680 	ldr	x0, [x20, #8]
    c104:	b9402a63 	ldr	w3, [x19, #40]
    c108:	910123e4 	add	x4, sp, #0x48
    c10c:	910043e5 	add	x5, sp, #0x10
    c110:	aa1603e1 	mov	x1, x22
    c114:	940001a1 	bl	c798 <__libc_init@plt-0x3f8>
    c118:	370007c0 	tbnz	w0, #0, c210 <__libc_init@plt-0x980>
    c11c:	f9400277 	ldr	x23, [x19]
    c120:	d503201f 	nop
    c124:	1004b500 	adr	x0, 157c4 <fwrite@plt+0x88d4>
    c128:	94000366 	bl	cec0 <pthread_rwlock_rdlock@plt>
    c12c:	b0000048 	adrp	x8, 15000 <fwrite@plt+0x8110>
    c130:	b0000049 	adrp	x9, 15000 <fwrite@plt+0x8110>
    c134:	f943d108 	ldr	x8, [x8, #1952]
    c138:	f943d529 	ldr	x9, [x9, #1960]
    c13c:	eb09011f 	cmp	x8, x9
    c140:	54000522 	b.cs	c1e4 <__libc_init@plt-0x9ac>  // b.hs, b.nlast
    c144:	b10006ff 	cmn	x23, #0x1
    c148:	540000a1 	b.ne	c15c <__libc_init@plt-0xa34>  // b.any
    c14c:	14000011 	b	c190 <__libc_init@plt-0xa00>
    c150:	91008108 	add	x8, x8, #0x20
    c154:	eb09011f 	cmp	x8, x9
    c158:	54000462 	b.cs	c1e4 <__libc_init@plt-0x9ac>  // b.hs, b.nlast
    c15c:	f940010a 	ldr	x10, [x8]
    c160:	eb0a02ff 	cmp	x23, x10
    c164:	54ffff61 	b.ne	c150 <__libc_init@plt-0xa40>  // b.any
    c168:	f940050a 	ldr	x10, [x8, #8]
    c16c:	eb16015f 	cmp	x10, x22
    c170:	54ffff08 	b.hi	c150 <__libc_init@plt-0xa40>  // b.pmore
    c174:	f940090a 	ldr	x10, [x8, #16]
    c178:	eb0a02df 	cmp	x22, x10
    c17c:	54fffea2 	b.cs	c150 <__libc_init@plt-0xa40>  // b.hs, b.nlast
    c180:	1400000a 	b	c1a8 <__libc_init@plt-0x9e8>
    c184:	91008108 	add	x8, x8, #0x20
    c188:	eb09011f 	cmp	x8, x9
    c18c:	540002c2 	b.cs	c1e4 <__libc_init@plt-0x9ac>  // b.hs, b.nlast
    c190:	f940050a 	ldr	x10, [x8, #8]
    c194:	eb16015f 	cmp	x10, x22
    c198:	54ffff68 	b.hi	c184 <__libc_init@plt-0xa0c>  // b.pmore
    c19c:	f940090a 	ldr	x10, [x8, #16]
    c1a0:	eb0a02df 	cmp	x22, x10
    c1a4:	54ffff02 	b.cs	c184 <__libc_init@plt-0xa0c>  // b.hs, b.nlast
    c1a8:	f9400d17 	ldr	x23, [x8, #24]
    c1ac:	d503201f 	nop
    c1b0:	1004b0a0 	adr	x0, 157c4 <fwrite@plt+0x88d4>
    c1b4:	94000333 	bl	ce80 <pthread_rwlock_unlock@plt>
    c1b8:	b40001d7 	cbz	x23, c1f0 <__libc_init@plt-0x9a0>
    c1bc:	a9410e62 	ldp	x2, x3, [x19, #16]
    c1c0:	910123e5 	add	x5, sp, #0x48
    c1c4:	f9400680 	ldr	x0, [x20, #8]
    c1c8:	910043e6 	add	x6, sp, #0x10
    c1cc:	aa1603e1 	mov	x1, x22
    c1d0:	aa1703e4 	mov	x4, x23
    c1d4:	940000ff 	bl	c5d0 <__libc_init@plt-0x5c0>
    c1d8:	360000c0 	tbz	w0, #0, c1f0 <__libc_init@plt-0x9a0>
    c1dc:	2a1f03f8 	mov	w24, wzr
    c1e0:	1400000d 	b	c214 <__libc_init@plt-0x97c>
    c1e4:	d503201f 	nop
    c1e8:	1004aee0 	adr	x0, 157c4 <fwrite@plt+0x88d4>
    c1ec:	94000325 	bl	ce80 <pthread_rwlock_unlock@plt>
    c1f0:	a9410e62 	ldp	x2, x3, [x19, #16]
    c1f4:	910123e5 	add	x5, sp, #0x48
    c1f8:	f9400680 	ldr	x0, [x20, #8]
    c1fc:	910043e6 	add	x6, sp, #0x10
    c200:	aa1603e1 	mov	x1, x22
    c204:	aa1f03e4 	mov	x4, xzr
    c208:	940000f2 	bl	c5d0 <__libc_init@plt-0x5c0>
    c20c:	36000a00 	tbz	w0, #0, c34c <__libc_init@plt-0x844>
    c210:	52800038 	mov	w24, #0x1                   	// #1
    c214:	f9400279 	ldr	x25, [x19]
    c218:	9101e3e0 	add	x0, sp, #0x78
    c21c:	2a1f03e1 	mov	w1, wzr
    c220:	5280c402 	mov	w2, #0x620                 	// #1568
    c224:	94000303 	bl	ce30 <memset@plt>
    c228:	f9400680 	ldr	x0, [x20, #8]
    c22c:	910123e1 	add	x1, sp, #0x48
    c230:	910043e2 	add	x2, sp, #0x10
    c234:	9101e3e5 	add	x5, sp, #0x78
    c238:	aa1603e3 	mov	x3, x22
    c23c:	52800084 	mov	w4, #0x4                   	// #4
    c240:	97fff84b 	bl	a36c <__libc_init@plt-0x2824>
    c244:	36000840 	tbz	w0, #0, c34c <__libc_init@plt-0x844>
    c248:	3cc683e0 	ldur	q0, [sp, #104]
    c24c:	9108a288 	add	x8, x20, #0x228
    c250:	f9401be9 	ldr	x9, [sp, #48]
    c254:	f94033f6 	ldr	x22, [sp, #96]
    c258:	710002bf 	cmp	w21, #0x0
    c25c:	52800020 	mov	w0, #0x1                   	// #1
    c260:	3d800100 	str	q0, [x8]
    c264:	b9408be8 	ldr	w8, [sp, #136]
    c268:	f9011e89 	str	x9, [x20, #568]
    c26c:	52000309 	eor	w9, w24, #0x1
    c270:	f9012288 	str	x8, [x20, #576]
    c274:	52a06008 	mov	w8, #0x3000000             	// #50331648
    c278:	b9025288 	str	w8, [x20, #592]
    c27c:	a944a3f7 	ldp	x23, x8, [sp, #72]
    c280:	f9011296 	str	x22, [x20, #544]
    c284:	f901269f 	str	xzr, [x20, #584]
    c288:	b9025688 	str	w8, [x20, #596]
    c28c:	1a9f0528 	csinc	w8, w9, wzr, eq	// eq = none
    c290:	f9012e97 	str	x23, [x20, #600]
    c294:	f9013299 	str	x25, [x20, #608]
    c298:	370005c8 	tbnz	w8, #0, c350 <__libc_init@plt-0x840>
    c29c:	f9401268 	ldr	x8, [x19, #32]
    c2a0:	b5000588 	cbnz	x8, c350 <__libc_init@plt-0x840>
    c2a4:	f9400278 	ldr	x24, [x19]
    c2a8:	d503201f 	nop
    c2ac:	1004a8c0 	adr	x0, 157c4 <fwrite@plt+0x88d4>
    c2b0:	3d8003e0 	str	q0, [sp]
    c2b4:	940002ef 	bl	ce70 <pthread_rwlock_wrlock@plt>
    c2b8:	b0000059 	adrp	x25, 15000 <fwrite@plt+0x8110>
    c2bc:	b000005a 	adrp	x26, 15000 <fwrite@plt+0x8110>
    c2c0:	f943d728 	ldr	x8, [x25, #1960]
    c2c4:	f943db49 	ldr	x9, [x26, #1968]
    c2c8:	eb09011f 	cmp	x8, x9
    c2cc:	540002a3 	b.cc	c320 <__libc_init@plt-0x870>  // b.lo, b.ul, b.last
    c2d0:	b000005b 	adrp	x27, 15000 <fwrite@plt+0x8110>
    c2d4:	f943d375 	ldr	x21, [x27, #1952]
    c2d8:	cb150133 	sub	x19, x9, x21
    c2dc:	d37ef660 	lsl	x0, x19, #2
    c2e0:	9343fe7c 	asr	x28, x19, #3
    c2e4:	940002eb 	bl	ce90 <malloc@plt>
    c2e8:	aa1503e1 	mov	x1, x21
    c2ec:	aa1303e2 	mov	x2, x19
    c2f0:	aa0003f4 	mov	x20, x0
    c2f4:	94000283 	bl	cd00 <memcpy@plt>
    c2f8:	d503201f 	nop
    c2fc:	1004a828 	adr	x8, 15800 <fwrite@plt+0x8910>
    c300:	eb0802bf 	cmp	x21, x8
    c304:	54000060 	b.eq	c310 <__libc_init@plt-0x880>  // b.none
    c308:	aa1503e0 	mov	x0, x21
    c30c:	940002e5 	bl	cea0 <free@plt>
    c310:	8b1c1689 	add	x9, x20, x28, lsl #5
    c314:	8b130288 	add	x8, x20, x19
    c318:	f903d374 	str	x20, [x27, #1952]
    c31c:	f903db49 	str	x9, [x26, #1968]
    c320:	3dc003e0 	ldr	q0, [sp]
    c324:	a9005918 	stp	x24, x22, [x8]
    c328:	d503201f 	nop
    c32c:	1004a4c0 	adr	x0, 157c4 <fwrite@plt+0x88d4>
    c330:	f9000d17 	str	x23, [x8, #24]
    c334:	fd000900 	str	d0, [x8, #16]
    c338:	91008108 	add	x8, x8, #0x20
    c33c:	f903d728 	str	x8, [x25, #1960]
    c340:	940002d0 	bl	ce80 <pthread_rwlock_unlock@plt>
    c344:	52800020 	mov	w0, #0x1                   	// #1
    c348:	14000002 	b	c350 <__libc_init@plt-0x840>
    c34c:	2a1f03e0 	mov	w0, wzr
    c350:	911a83ff 	add	sp, sp, #0x6a0
    c354:	a9454ff4 	ldp	x20, x19, [sp, #80]
    c358:	a94457f6 	ldp	x22, x21, [sp, #64]
    c35c:	a9435ff8 	ldp	x24, x23, [sp, #48]
    c360:	a94267fa 	ldp	x26, x25, [sp, #32]
    c364:	a9416ffc 	ldp	x28, x27, [sp, #16]
    c368:	a8c67bfd 	ldp	x29, x30, [sp], #96
    c36c:	d50323bf 	autiasp
    c370:	d65f03c0 	ret
    c374:	d503245f 	bti	c
    c378:	79403008 	ldrh	w8, [x0, #24]
    c37c:	b4000308 	cbz	x8, c3dc <__libc_init@plt-0x7b4>
    c380:	d503233f 	paciasp
    c384:	d101c3ff 	sub	sp, sp, #0x70
    c388:	a9027bfd 	stp	x29, x30, [sp, #32]
    c38c:	f9001bf9 	str	x25, [sp, #48]
    c390:	a9045ff8 	stp	x24, x23, [sp, #64]
    c394:	a90557f6 	stp	x22, x21, [sp, #80]
    c398:	a9064ff4 	stp	x20, x19, [sp, #96]
    c39c:	910083fd 	add	x29, sp, #0x20
    c3a0:	f9400849 	ldr	x9, [x2, #16]
    c3a4:	f9400015 	ldr	x21, [x0]
    c3a8:	aa0003f4 	mov	x20, x0
    c3ac:	aa0203f3 	mov	x19, x2
    c3b0:	eb15013f 	cmp	x9, x21
    c3b4:	54000182 	b.cs	c3e4 <__libc_init@plt-0x7ac>  // b.hs, b.nlast
    c3b8:	2a1f03e0 	mov	w0, wzr
    c3bc:	a9464ff4 	ldp	x20, x19, [sp, #96]
    c3c0:	f9401bf9 	ldr	x25, [sp, #48]
    c3c4:	a94557f6 	ldp	x22, x21, [sp, #80]
    c3c8:	a9445ff8 	ldp	x24, x23, [sp, #64]
    c3cc:	a9427bfd 	ldp	x29, x30, [sp, #32]
    c3d0:	9101c3ff 	add	sp, sp, #0x70
    c3d4:	d50323bf 	autiasp
    c3d8:	d65f03c0 	ret
    c3dc:	2a1f03e0 	mov	w0, wzr
    c3e0:	d65f03c0 	ret
    c3e4:	f9400a8a 	ldr	x10, [x20, #16]
    c3e8:	aa0803eb 	mov	x11, x8
    c3ec:	14000004 	b	c3fc <__libc_init@plt-0x794>
    c3f0:	f100056b 	subs	x11, x11, #0x1
    c3f4:	9100e14a 	add	x10, x10, #0x38
    c3f8:	54fffe00 	b.eq	c3b8 <__libc_init@plt-0x7d8>  // b.none
    c3fc:	b940014c 	ldr	w12, [x10]
    c400:	7100059f 	cmp	w12, #0x1
    c404:	54ffff61 	b.ne	c3f0 <__libc_init@plt-0x7a0>  // b.any
    c408:	f940094c 	ldr	x12, [x10, #16]
    c40c:	8b15018c 	add	x12, x12, x21
    c410:	eb0c013f 	cmp	x9, x12
    c414:	54fffee3 	b.cc	c3f0 <__libc_init@plt-0x7a0>  // b.lo, b.ul, b.last
    c418:	f940154d 	ldr	x13, [x10, #40]
    c41c:	8b0c01ae 	add	x14, x13, x12
    c420:	eb0e013f 	cmp	x9, x14
    c424:	54fffe62 	b.cs	c3f0 <__libc_init@plt-0x7a0>  // b.hs, b.nlast
    c428:	f9400669 	ldr	x9, [x19, #8]
    c42c:	1280000a 	mov	w10, #0xffffffff            	// #-1
    c430:	529caa19 	mov	w25, #0xe550                	// #58704
    c434:	8b0a0116 	add	x22, x8, x10
    c438:	d1000517 	sub	x23, x8, #0x1
    c43c:	52800718 	mov	w24, #0x38                  	// #56
    c440:	72ac8e99 	movk	w25, #0x6474, lsl #16
    c444:	a900352c 	stp	x12, x13, [x9]
    c448:	14000005 	b	c45c <__libc_init@plt-0x734>
    c44c:	92403ee8 	and	x8, x23, #0xffff
    c450:	d10006d6 	sub	x22, x22, #0x1
    c454:	d10006f7 	sub	x23, x23, #0x1
    c458:	b4fffb08 	cbz	x8, c3b8 <__libc_init@plt-0x7d8>
    c45c:	f9400a88 	ldr	x8, [x20, #16]
    c460:	d503201f 	nop
    c464:	9bb822c8 	umaddl	x8, w22, w24, x8
    c468:	b9400109 	ldr	w9, [x8]
    c46c:	6b19013f 	cmp	w9, w25
    c470:	54fffee1 	b.ne	c44c <__libc_init@plt-0x744>  // b.any
    c474:	f9400909 	ldr	x9, [x8, #16]
    c478:	a9402a60 	ldp	x0, x10, [x19]
    c47c:	f9401508 	ldr	x8, [x8, #40]
    c480:	910003e3 	mov	x3, sp
    c484:	8b150121 	add	x1, x9, x21
    c488:	8b010102 	add	x2, x8, x1
    c48c:	a9022141 	stp	x1, x8, [x10, #32]
    c490:	94000008 	bl	c4b0 <__libc_init@plt-0x6e0>
    c494:	3607fdc0 	tbz	w0, #0, c44c <__libc_init@plt-0x744>
    c498:	f94003e8 	ldr	x8, [sp]
    c49c:	f9400669 	ldr	x9, [x19, #8]
    c4a0:	9280000a 	mov	x10, #0xffffffffffffffff    	// #-1
    c4a4:	52800020 	mov	w0, #0x1                   	// #1
    c4a8:	a9012928 	stp	x8, x10, [x9, #16]
    c4ac:	17ffffc4 	b	c3bc <__libc_init@plt-0x7d4>
    c4b0:	d503233f 	paciasp
    c4b4:	a9bc7bfd 	stp	x29, x30, [sp, #-64]!
    c4b8:	f9000bf7 	str	x23, [sp, #16]
    c4bc:	a90257f6 	stp	x22, x21, [sp, #32]
    c4c0:	a9034ff4 	stp	x20, x19, [sp, #48]
    c4c4:	910003fd 	mov	x29, sp
    c4c8:	aa0303f4 	mov	x20, x3
    c4cc:	cb010043 	sub	x3, x2, x1
    c4d0:	aa0103f3 	mov	x19, x1
    c4d4:	f1000c7f 	cmp	x3, #0x3
    c4d8:	54000168 	b.hi	c504 <__libc_init@plt-0x68c>  // b.pmore
    c4dc:	eb13005f 	cmp	x2, x19
    c4e0:	54000560 	b.eq	c58c <__libc_init@plt-0x604>  // b.none
    c4e4:	b0000034 	adrp	x20, 11000 <fwrite@plt+0x4110>
    c4e8:	d0ffffa1 	adrp	x1, 2000 <__libc_init@plt-0xab90>
    c4ec:	912fd421 	add	x1, x1, #0xbf5
    c4f0:	f942d294 	ldr	x20, [x20, #1440]
    c4f4:	aa1303e2 	mov	x2, x19
    c4f8:	9104c280 	add	x0, x20, #0x130
    c4fc:	94000251 	bl	ce40 <fprintf@plt>
    c500:	14000021 	b	c584 <__libc_init@plt-0x60c>
    c504:	39400268 	ldrb	w8, [x19]
    c508:	7100051f 	cmp	w8, #0x1
    c50c:	540002c1 	b.ne	c564 <__libc_init@plt-0x62c>  // b.any
    c510:	91001268 	add	x8, x19, #0x4
    c514:	39400a75 	ldrb	w21, [x19, #2]
    c518:	39400663 	ldrb	w3, [x19, #1]
    c51c:	f9000fa8 	str	x8, [x29, #24]
    c520:	910063a1 	add	x1, x29, #0x18
    c524:	aa1303e4 	mov	x4, x19
    c528:	39400e68 	ldrb	w8, [x19, #3]
    c52c:	aa0003f7 	mov	x23, x0
    c530:	aa0203f6 	mov	x22, x2
    c534:	39006288 	strb	w8, [x20, #24]
    c538:	97fffb14 	bl	b188 <__libc_init@plt-0x1a08>
    c53c:	7103febf 	cmp	w21, #0xff
    c540:	f9000280 	str	x0, [x20]
    c544:	54000320 	b.eq	c5a8 <__libc_init@plt-0x5e8>  // b.none
    c548:	910063a1 	add	x1, x29, #0x18
    c54c:	aa1703e0 	mov	x0, x23
    c550:	aa1603e2 	mov	x2, x22
    c554:	2a1503e3 	mov	w3, w21
    c558:	aa1303e4 	mov	x4, x19
    c55c:	97fffb0b 	bl	b188 <__libc_init@plt-0x1a08>
    c560:	14000013 	b	c5ac <__libc_init@plt-0x5e4>
    c564:	b0000034 	adrp	x20, 11000 <fwrite@plt+0x4110>
    c568:	d0ffffa1 	adrp	x1, 2000 <__libc_init@plt-0xab90>
    c56c:	9116f421 	add	x1, x1, #0x5bd
    c570:	f942d294 	ldr	x20, [x20, #1440]
    c574:	2a0803e2 	mov	w2, w8
    c578:	aa1303e3 	mov	x3, x19
    c57c:	9104c280 	add	x0, x20, #0x130
    c580:	94000230 	bl	ce40 <fprintf@plt>
    c584:	9104c280 	add	x0, x20, #0x130
    c588:	94000232 	bl	ce50 <fflush@plt>
    c58c:	2a1f03e0 	mov	w0, wzr
    c590:	a9434ff4 	ldp	x20, x19, [sp, #48]
    c594:	f9400bf7 	ldr	x23, [sp, #16]
    c598:	a94257f6 	ldp	x22, x21, [sp, #32]
    c59c:	a8c47bfd 	ldp	x29, x30, [sp], #64
    c5a0:	d50323bf 	autiasp
    c5a4:	d65f03c0 	ret
    c5a8:	aa1f03e0 	mov	x0, xzr
    c5ac:	f9400fa8 	ldr	x8, [x29, #24]
    c5b0:	a900a280 	stp	x0, x8, [x20, #8]
    c5b4:	52800020 	mov	w0, #0x1                   	// #1
    c5b8:	a9434ff4 	ldp	x20, x19, [sp, #48]
    c5bc:	f9400bf7 	ldr	x23, [sp, #16]
    c5c0:	a94257f6 	ldp	x22, x21, [sp, #32]
    c5c4:	a8c47bfd 	ldp	x29, x30, [sp], #64
    c5c8:	d50323bf 	autiasp
    c5cc:	d65f03c0 	ret
    c5d0:	d503233f 	paciasp
    c5d4:	d101c3ff 	sub	sp, sp, #0x70
    c5d8:	a9017bfd 	stp	x29, x30, [sp, #16]
    c5dc:	a9026ffc 	stp	x28, x27, [sp, #32]
    c5e0:	a90367fa 	stp	x26, x25, [sp, #48]
    c5e4:	a9045ff8 	stp	x24, x23, [sp, #64]
    c5e8:	a90557f6 	stp	x22, x21, [sp, #80]
    c5ec:	a9064ff4 	stp	x20, x19, [sp, #96]
    c5f0:	910043fd 	add	x29, sp, #0x10
    c5f4:	f100009f 	cmp	x4, #0x0
    c5f8:	8b020068 	add	x8, x3, x2
    c5fc:	9a840056 	csel	x22, x2, x4, eq	// eq = none
    c600:	b100047f 	cmn	x3, #0x1
    c604:	da9f111b 	csinv	x27, x8, xzr, ne	// ne = any
    c608:	f90007f6 	str	x22, [sp, #8]
    c60c:	eb1b02df 	cmp	x22, x27
    c610:	54000a22 	b.cs	c754 <__libc_init@plt-0x43c>  // b.hs, b.nlast
    c614:	aa0603f5 	mov	x21, x6
    c618:	aa0503f3 	mov	x19, x5
    c61c:	aa0203f7 	mov	x23, x2
    c620:	aa0103f8 	mov	x24, x1
    c624:	aa0003f4 	mov	x20, x0
    c628:	14000004 	b	c638 <__libc_init@plt-0x558>
    c62c:	eb1b02df 	cmp	x22, x27
    c630:	f90007f6 	str	x22, [sp, #8]
    c634:	54000902 	b.cs	c754 <__libc_init@plt-0x43c>  // b.hs, b.nlast
    c638:	aa1603e8 	mov	x8, x22
    c63c:	aa1603fa 	mov	x26, x22
    c640:	b8404509 	ldr	w9, [x8], #4
    c644:	f90007e8 	str	x8, [sp, #8]
    c648:	3100053f 	cmn	w9, #0x1
    c64c:	54000081 	b.ne	c65c <__libc_init@plt-0x534>  // b.any
    c650:	f8404349 	ldur	x9, [x26, #4]
    c654:	91003348 	add	x8, x26, #0xc
    c658:	f90007e8 	str	x8, [sp, #8]
    c65c:	b40007c9 	cbz	x9, c754 <__libc_init@plt-0x43c>
    c660:	b940010a 	ldr	w10, [x8]
    c664:	8b090116 	add	x22, x8, x9
    c668:	34fffe2a 	cbz	w10, c62c <__libc_init@plt-0x564>
    c66c:	cb0a0101 	sub	x1, x8, x10
    c670:	eb0102ff 	cmp	x23, x1
    c674:	54fffdc8 	b.hi	c62c <__libc_init@plt-0x564>  // b.pmore
    c678:	eb1b003f 	cmp	x1, x27
    c67c:	54fffd82 	b.cs	c62c <__libc_init@plt-0x564>  // b.hs, b.nlast
    c680:	aa1403e0 	mov	x0, x20
    c684:	aa1503e2 	mov	x2, x21
    c688:	97fff3ca 	bl	95b0 <__libc_init@plt-0x35e0>
    c68c:	b5fffd00 	cbnz	x0, c62c <__libc_init@plt-0x564>
    c690:	f94007e8 	ldr	x8, [sp, #8]
    c694:	394062a3 	ldrb	w3, [x21, #24]
    c698:	910023e1 	add	x1, sp, #0x8
    c69c:	aa1403e0 	mov	x0, x20
    c6a0:	aa1603e2 	mov	x2, x22
    c6a4:	aa1f03e4 	mov	x4, xzr
    c6a8:	91001108 	add	x8, x8, #0x4
    c6ac:	f90007e8 	str	x8, [sp, #8]
    c6b0:	97fffab6 	bl	b188 <__libc_init@plt-0x1a08>
    c6b4:	394062a8 	ldrb	w8, [x21, #24]
    c6b8:	aa0003f9 	mov	x25, x0
    c6bc:	910023e1 	add	x1, sp, #0x8
    c6c0:	aa1403e0 	mov	x0, x20
    c6c4:	aa1603e2 	mov	x2, x22
    c6c8:	aa1f03e4 	mov	x4, xzr
    c6cc:	12000d03 	and	w3, w8, #0xf
    c6d0:	97fffaae 	bl	b188 <__libc_init@plt-0x1a08>
    c6d4:	eb18033f 	cmp	x25, x24
    c6d8:	54fffaa2 	b.cs	c62c <__libc_init@plt-0x564>  // b.hs, b.nlast
    c6dc:	8b19001c 	add	x28, x0, x25
    c6e0:	eb1c031f 	cmp	x24, x28
    c6e4:	54fffa48 	b.hi	c62c <__libc_init@plt-0x564>  // b.pmore
    c6e8:	3940c6a8 	ldrb	w8, [x21, #49]
    c6ec:	f900167f 	str	xzr, [x19, #40]
    c6f0:	36000468 	tbz	w8, #0, c77c <__libc_init@plt-0x414>
    c6f4:	910023e0 	add	x0, sp, #0x8
    c6f8:	aa1603e1 	mov	x1, x22
    c6fc:	97fffb86 	bl	b514 <__libc_init@plt-0x167c>
    c700:	394066a8 	ldrb	w8, [x21, #25]
    c704:	f94007f8 	ldr	x24, [sp, #8]
    c708:	7103fd1f 	cmp	w8, #0xff
    c70c:	8b000317 	add	x23, x24, x0
    c710:	54000380 	b.eq	c780 <__libc_init@plt-0x410>  // b.none
    c714:	910023e1 	add	x1, sp, #0x8
    c718:	12000d03 	and	w3, w8, #0xf
    c71c:	aa1403e0 	mov	x0, x20
    c720:	aa1603e2 	mov	x2, x22
    c724:	aa1f03e4 	mov	x4, xzr
    c728:	97fffa98 	bl	b188 <__libc_init@plt-0x1a08>
    c72c:	b40002a0 	cbz	x0, c780 <__libc_init@plt-0x410>
    c730:	394066a3 	ldrb	w3, [x21, #25]
    c734:	910023e1 	add	x1, sp, #0x8
    c738:	aa1403e0 	mov	x0, x20
    c73c:	aa1603e2 	mov	x2, x22
    c740:	aa1f03e4 	mov	x4, xzr
    c744:	f90007f8 	str	x24, [sp, #8]
    c748:	97fffa90 	bl	b188 <__libc_init@plt-0x1a08>
    c74c:	f9001660 	str	x0, [x19, #40]
    c750:	1400000c 	b	c780 <__libc_init@plt-0x410>
    c754:	2a1f03e0 	mov	w0, wzr
    c758:	a9464ff4 	ldp	x20, x19, [sp, #96]
    c75c:	a94557f6 	ldp	x22, x21, [sp, #80]
    c760:	a9445ff8 	ldp	x24, x23, [sp, #64]
    c764:	a94367fa 	ldp	x26, x25, [sp, #48]
    c768:	a9426ffc 	ldp	x28, x27, [sp, #32]
    c76c:	a9417bfd 	ldp	x29, x30, [sp, #16]
    c770:	9101c3ff 	add	sp, sp, #0x70
    c774:	d50323bf 	autiasp
    c778:	d65f03c0 	ret
    c77c:	f94007f7 	ldr	x23, [sp, #8]
    c780:	cb1a02c8 	sub	x8, x22, x26
    c784:	a9016677 	stp	x23, x25, [x19, #16]
    c788:	52800020 	mov	w0, #0x1                   	// #1
    c78c:	a900227a 	stp	x26, x8, [x19]
    c790:	f900127c 	str	x28, [x19, #32]
    c794:	17fffff1 	b	c758 <__libc_init@plt-0x438>
    c798:	d503233f 	paciasp
    c79c:	d10283ff 	sub	sp, sp, #0xa0
    c7a0:	a9047bfd 	stp	x29, x30, [sp, #64]
    c7a4:	a9056ffc 	stp	x28, x27, [sp, #80]
    c7a8:	a90667fa 	stp	x26, x25, [sp, #96]
    c7ac:	a9075ff8 	stp	x24, x23, [sp, #112]
    c7b0:	a90857f6 	stp	x22, x21, [sp, #128]
    c7b4:	a9094ff4 	stp	x20, x19, [sp, #144]
    c7b8:	910103fd 	add	x29, sp, #0x40
    c7bc:	8b234058 	add	x24, x2, w3, uxtw
    c7c0:	aa0203f7 	mov	x23, x2
    c7c4:	aa0103f4 	mov	x20, x1
    c7c8:	910083e3 	add	x3, sp, #0x20
    c7cc:	aa0203e1 	mov	x1, x2
    c7d0:	aa0503f5 	mov	x21, x5
    c7d4:	aa1803e2 	mov	x2, x24
    c7d8:	aa0403f3 	mov	x19, x4
    c7dc:	aa0003f6 	mov	x22, x0
    c7e0:	97ffff34 	bl	c4b0 <__libc_init@plt-0x6e0>
    c7e4:	360007a0 	tbz	w0, #0, c8d8 <__libc_init@plt-0x2b8>
    c7e8:	f94017e8 	ldr	x8, [sp, #40]
    c7ec:	b4000768 	cbz	x8, c8d8 <__libc_init@plt-0x2b8>
    c7f0:	3940e3e0 	ldrb	w0, [sp, #56]
    c7f4:	a900cff5 	stp	x21, x19, [sp, #8]
    c7f8:	94000042 	bl	c900 <__libc_init@plt-0x290>
    c7fc:	f94017fb 	ldr	x27, [sp, #40]
    c800:	aa0003f9 	mov	x25, x0
    c804:	aa1f03fa 	mov	x26, xzr
    c808:	f100077f 	cmp	x27, #0x1
    c80c:	54000269 	b.ls	c858 <__libc_init@plt-0x338>  // b.plast
    c810:	d341ff75 	lsr	x21, x27, #1
    c814:	f9401be8 	ldr	x8, [sp, #48]
    c818:	3940e3e3 	ldrb	w3, [sp, #56]
    c81c:	910063e1 	add	x1, sp, #0x18
    c820:	aa1603e0 	mov	x0, x22
    c824:	aa1803e2 	mov	x2, x24
    c828:	8b1a02b3 	add	x19, x21, x26
    c82c:	aa1703e4 	mov	x4, x23
    c830:	9b197e7c 	mul	x28, x19, x25
    c834:	8b1c0108 	add	x8, x8, x28
    c838:	f9000fe8 	str	x8, [sp, #24]
    c83c:	97fffa53 	bl	b188 <__libc_init@plt-0x1a08>
    c840:	cb150368 	sub	x8, x27, x21
    c844:	eb14001f 	cmp	x0, x20
    c848:	9a93235a 	csel	x26, x26, x19, cs	// cs = hs, nlast
    c84c:	9a8822bb 	csel	x27, x21, x8, cs	// cs = hs, nlast
    c850:	54fffdc1 	b.ne	c808 <__libc_init@plt-0x388>  // b.any
    c854:	14000002 	b	c85c <__libc_init@plt-0x334>
    c858:	9b197f5c 	mul	x28, x26, x25
    c85c:	f9401be8 	ldr	x8, [sp, #48]
    c860:	3940e3f9 	ldrb	w25, [sp, #56]
    c864:	910063e1 	add	x1, sp, #0x18
    c868:	aa1603e0 	mov	x0, x22
    c86c:	aa1803e2 	mov	x2, x24
    c870:	aa1703e4 	mov	x4, x23
    c874:	8b1c0108 	add	x8, x8, x28
    c878:	2a1903e3 	mov	w3, w25
    c87c:	f9000fe8 	str	x8, [sp, #24]
    c880:	97fffa42 	bl	b188 <__libc_init@plt-0x1a08>
    c884:	910063e1 	add	x1, sp, #0x18
    c888:	aa1603e0 	mov	x0, x22
    c88c:	aa1803e2 	mov	x2, x24
    c890:	2a1903e3 	mov	w3, w25
    c894:	aa1703e4 	mov	x4, x23
    c898:	97fffa3c 	bl	b188 <__libc_init@plt-0x1a08>
    c89c:	a940cfe3 	ldp	x3, x19, [sp, #8]
    c8a0:	aa0003e1 	mov	x1, x0
    c8a4:	aa1603e0 	mov	x0, x22
    c8a8:	2a1f03e4 	mov	w4, wzr
    c8ac:	aa1303e2 	mov	x2, x19
    c8b0:	97fff2da 	bl	9418 <__libc_init@plt-0x3778>
    c8b4:	b5000120 	cbnz	x0, c8d8 <__libc_init@plt-0x2b8>
    c8b8:	f9400e68 	ldr	x8, [x19, #24]
    c8bc:	eb08029f 	cmp	x20, x8
    c8c0:	540000c3 	b.cc	c8d8 <__libc_init@plt-0x2b8>  // b.lo, b.ul, b.last
    c8c4:	f9401268 	ldr	x8, [x19, #32]
    c8c8:	eb08029f 	cmp	x20, x8
    c8cc:	54000062 	b.cs	c8d8 <__libc_init@plt-0x2b8>  // b.hs, b.nlast
    c8d0:	52800020 	mov	w0, #0x1                   	// #1
    c8d4:	14000002 	b	c8dc <__libc_init@plt-0x2b4>
    c8d8:	2a1f03e0 	mov	w0, wzr
    c8dc:	a9494ff4 	ldp	x20, x19, [sp, #144]
    c8e0:	a94857f6 	ldp	x22, x21, [sp, #128]
    c8e4:	a9475ff8 	ldp	x24, x23, [sp, #112]
    c8e8:	a94667fa 	ldp	x26, x25, [sp, #96]
    c8ec:	a9456ffc 	ldp	x28, x27, [sp, #80]
    c8f0:	a9447bfd 	ldp	x29, x30, [sp, #64]
    c8f4:	910283ff 	add	sp, sp, #0xa0
    c8f8:	d50323bf 	autiasp
    c8fc:	d65f03c0 	ret
    c900:	d503233f 	paciasp
    c904:	a9be7bfd 	stp	x29, x30, [sp, #-32]!
    c908:	f9000bf3 	str	x19, [sp, #16]
    c90c:	910003fd 	mov	x29, sp
    c910:	12000c08 	and	w8, w0, #0xf
    c914:	52800080 	mov	w0, #0x4                   	// #4
    c918:	7100211f 	cmp	w8, #0x8
    c91c:	5400010c 	b.gt	c93c <__libc_init@plt-0x254>
    c920:	7100091f 	cmp	w8, #0x2
    c924:	540002cd 	b.le	c97c <__libc_init@plt-0x214>
    c928:	71000d1f 	cmp	w8, #0x3
    c92c:	54000140 	b.eq	c954 <__libc_init@plt-0x23c>  // b.none
    c930:	7100111f 	cmp	w8, #0x4
    c934:	540001a0 	b.eq	c968 <__libc_init@plt-0x228>  // b.none
    c938:	14000014 	b	c988 <__libc_init@plt-0x208>
    c93c:	7100291f 	cmp	w8, #0xa
    c940:	540003ed 	b.le	c9bc <__libc_init@plt-0x1d4>
    c944:	7100311f 	cmp	w8, #0xc
    c948:	54000100 	b.eq	c968 <__libc_init@plt-0x228>  // b.none
    c94c:	71002d1f 	cmp	w8, #0xb
    c950:	540001c1 	b.ne	c988 <__libc_init@plt-0x208>  // b.any
    c954:	52800100 	mov	w0, #0x8                   	// #8
    c958:	f9400bf3 	ldr	x19, [sp, #16]
    c95c:	a8c27bfd 	ldp	x29, x30, [sp], #32
    c960:	d50323bf 	autiasp
    c964:	d65f03c0 	ret
    c968:	52800200 	mov	w0, #0x10                  	// #16
    c96c:	f9400bf3 	ldr	x19, [sp, #16]
    c970:	a8c27bfd 	ldp	x29, x30, [sp], #32
    c974:	d50323bf 	autiasp
    c978:	d65f03c0 	ret
    c97c:	54fffee0 	b.eq	c958 <__libc_init@plt-0x238>  // b.none
    c980:	7100051f 	cmp	w8, #0x1
    c984:	54000220 	b.eq	c9c8 <__libc_init@plt-0x1c8>  // b.none
    c988:	b0000033 	adrp	x19, 11000 <fwrite@plt+0x4110>
    c98c:	d503201f 	nop
    c990:	70fac801 	adr	x1, 2293 <__libc_init@plt-0xa8fd>
    c994:	f942d273 	ldr	x19, [x19, #1440]
    c998:	d0ffffa2 	adrp	x2, 2000 <__libc_init@plt-0xab90>
    c99c:	9119e042 	add	x2, x2, #0x678
    c9a0:	d0ffffa3 	adrp	x3, 2000 <__libc_init@plt-0xab90>
    c9a4:	91398063 	add	x3, x3, #0xe60
    c9a8:	9104c260 	add	x0, x19, #0x130
    c9ac:	94000125 	bl	ce40 <fprintf@plt>
    c9b0:	9104c260 	add	x0, x19, #0x130
    c9b4:	94000127 	bl	ce50 <fflush@plt>
    c9b8:	9400012a 	bl	ce60 <abort@plt>
    c9bc:	54fffce0 	b.eq	c958 <__libc_init@plt-0x238>  // b.none
    c9c0:	7100251f 	cmp	w8, #0x9
    c9c4:	54fffe21 	b.ne	c988 <__libc_init@plt-0x208>  // b.any
    c9c8:	b0000033 	adrp	x19, 11000 <fwrite@plt+0x4110>
    c9cc:	d503201f 	nop
    c9d0:	70fac601 	adr	x1, 2293 <__libc_init@plt-0xa8fd>
    c9d4:	f942d273 	ldr	x19, [x19, #1440]
    c9d8:	d0ffffa2 	adrp	x2, 2000 <__libc_init@plt-0xab90>
    c9dc:	9119e042 	add	x2, x2, #0x678
    c9e0:	d0ffffa3 	adrp	x3, 2000 <__libc_init@plt-0xab90>
    c9e4:	91121063 	add	x3, x3, #0x484
    c9e8:	9104c260 	add	x0, x19, #0x130
    c9ec:	94000115 	bl	ce40 <fprintf@plt>
    c9f0:	9104c260 	add	x0, x19, #0x130
    c9f4:	94000117 	bl	ce50 <fflush@plt>
    c9f8:	9400011a 	bl	ce60 <abort@plt>
    c9fc:	d503245f 	bti	c
    ca00:	11000808 	add	w8, w0, #0x2
    ca04:	7101851f 	cmp	w8, #0x61
    ca08:	540000c8 	b.hi	ca20 <__libc_init@plt-0x170>  // b.pmore
    ca0c:	d503201f 	nop
    ca10:	10fb4bc9 	adr	x9, 3388 <__libc_init@plt-0x9808>
    ca14:	b8a85928 	ldrsw	x8, [x9, w8, uxtw #2]
    ca18:	8b080120 	add	x0, x9, x8
    ca1c:	d65f03c0 	ret
    ca20:	d0ffffa0 	adrp	x0, 2000 <__libc_init@plt-0xab90>
    ca24:	91386c00 	add	x0, x0, #0xe1b
    ca28:	d65f03c0 	ret
    ca2c:	d50324df 	bti	jc
    ca30:	a9410c02 	ldp	x2, x3, [x0, #16]
    ca34:	a9421404 	ldp	x4, x5, [x0, #32]
    ca38:	a9431c06 	ldp	x6, x7, [x0, #48]
    ca3c:	a9442408 	ldp	x8, x9, [x0, #64]
    ca40:	a9452c0a 	ldp	x10, x11, [x0, #80]
    ca44:	a946340c 	ldp	x12, x13, [x0, #96]
    ca48:	a9473c0e 	ldp	x14, x15, [x0, #112]
    ca4c:	a9494c12 	ldp	x18, x19, [x0, #144]
    ca50:	a94a5414 	ldp	x20, x21, [x0, #160]
    ca54:	a94b5c16 	ldp	x22, x23, [x0, #176]
    ca58:	a94c6418 	ldp	x24, x25, [x0, #192]
    ca5c:	a94d6c1a 	ldp	x26, x27, [x0, #208]
    ca60:	a94e741c 	ldp	x28, x29, [x0, #224]
    ca64:	f940801e 	ldr	x30, [x0, #256]
    ca68:	6d510400 	ldp	d0, d1, [x0, #272]
    ca6c:	6d520c02 	ldp	d2, d3, [x0, #288]
    ca70:	6d531404 	ldp	d4, d5, [x0, #304]
    ca74:	6d541c06 	ldp	d6, d7, [x0, #320]
    ca78:	6d552408 	ldp	d8, d9, [x0, #336]
    ca7c:	6d562c0a 	ldp	d10, d11, [x0, #352]
    ca80:	6d57340c 	ldp	d12, d13, [x0, #368]
    ca84:	6d583c0e 	ldp	d14, d15, [x0, #384]
    ca88:	6d594410 	ldp	d16, d17, [x0, #400]
    ca8c:	6d5a4c12 	ldp	d18, d19, [x0, #416]
    ca90:	6d5b5414 	ldp	d20, d21, [x0, #432]
    ca94:	6d5c5c16 	ldp	d22, d23, [x0, #448]
    ca98:	6d5d6418 	ldp	d24, d25, [x0, #464]
    ca9c:	6d5e6c1a 	ldp	d26, d27, [x0, #480]
    caa0:	6d5f741c 	ldp	d28, d29, [x0, #496]
    caa4:	fd41001e 	ldr	d30, [x0, #512]
    caa8:	fd41041f 	ldr	d31, [x0, #520]
    caac:	f9407c10 	ldr	x16, [x0, #248]
    cab0:	a9400400 	ldp	x0, x1, [x0]
    cab4:	9100021f 	mov	sp, x16
    cab8:	d2800030 	mov	x16, #0x1                   	// #1
    cabc:	d503251f 	chkfeat	x16
    cac0:	b5000050 	cbnz	x16, cac8 <__libc_init@plt-0xc8>
    cac4:	d50b771e 	gcspushm	x30
    cac8:	d65f03c0 	ret
    cacc:	d50324df 	bti	jc
    cad0:	a9000400 	stp	x0, x1, [x0]
    cad4:	a9010c02 	stp	x2, x3, [x0, #16]
    cad8:	a9021404 	stp	x4, x5, [x0, #32]
    cadc:	a9031c06 	stp	x6, x7, [x0, #48]
    cae0:	a9042408 	stp	x8, x9, [x0, #64]
    cae4:	a9052c0a 	stp	x10, x11, [x0, #80]
    cae8:	a906340c 	stp	x12, x13, [x0, #96]
    caec:	a9073c0e 	stp	x14, x15, [x0, #112]
    caf0:	a9084410 	stp	x16, x17, [x0, #128]
    caf4:	a9094c12 	stp	x18, x19, [x0, #144]
    caf8:	a90a5414 	stp	x20, x21, [x0, #160]
    cafc:	a90b5c16 	stp	x22, x23, [x0, #176]
    cb00:	a90c6418 	stp	x24, x25, [x0, #192]
    cb04:	a90d6c1a 	stp	x26, x27, [x0, #208]
    cb08:	a90e741c 	stp	x28, x29, [x0, #224]
    cb0c:	f900781e 	str	x30, [x0, #240]
    cb10:	910003e1 	mov	x1, sp
    cb14:	f9007c01 	str	x1, [x0, #248]
    cb18:	f900801e 	str	x30, [x0, #256]
    cb1c:	6d110400 	stp	d0, d1, [x0, #272]
    cb20:	6d120c02 	stp	d2, d3, [x0, #288]
    cb24:	6d131404 	stp	d4, d5, [x0, #304]
    cb28:	6d141c06 	stp	d6, d7, [x0, #320]
    cb2c:	6d152408 	stp	d8, d9, [x0, #336]
    cb30:	6d162c0a 	stp	d10, d11, [x0, #352]
    cb34:	6d17340c 	stp	d12, d13, [x0, #368]
    cb38:	6d183c0e 	stp	d14, d15, [x0, #384]
    cb3c:	6d194410 	stp	d16, d17, [x0, #400]
    cb40:	6d1a4c12 	stp	d18, d19, [x0, #416]
    cb44:	6d1b5414 	stp	d20, d21, [x0, #432]
    cb48:	6d1c5c16 	stp	d22, d23, [x0, #448]
    cb4c:	6d1d6418 	stp	d24, d25, [x0, #464]
    cb50:	6d1e6c1a 	stp	d26, d27, [x0, #480]
    cb54:	6d1f741c 	stp	d28, d29, [x0, #496]
    cb58:	fd01001e 	str	d30, [x0, #512]
    cb5c:	fd01041f 	str	d31, [x0, #520]
    cb60:	d2800000 	mov	x0, #0x0                   	// #0
    cb64:	d65f03c0 	ret

Disassembly of section .plt:

000000000000cb70 <__libc_init@plt-0x20>:
    cb70:	a9bf7bf0 	stp	x16, x30, [sp, #-16]!
    cb74:	b0000030 	adrp	x16, 11000 <fwrite@plt+0x4110>
    cb78:	f942e211 	ldr	x17, [x16, #1472]
    cb7c:	91170210 	add	x16, x16, #0x5c0
    cb80:	d61f0220 	br	x17
    cb84:	d503201f 	nop
    cb88:	d503201f 	nop
    cb8c:	d503201f 	nop

000000000000cb90 <__libc_init@plt>:
    cb90:	b0000030 	adrp	x16, 11000 <fwrite@plt+0x4110>
    cb94:	f942e611 	ldr	x17, [x16, #1480]
    cb98:	91172210 	add	x16, x16, #0x5c8
    cb9c:	d61f0220 	br	x17

000000000000cba0 <__cxa_atexit@plt>:
    cba0:	b0000030 	adrp	x16, 11000 <fwrite@plt+0x4110>
    cba4:	f942ea11 	ldr	x17, [x16, #1488]
    cba8:	91174210 	add	x16, x16, #0x5d0
    cbac:	d61f0220 	br	x17

000000000000cbb0 <__register_atfork@plt>:
    cbb0:	b0000030 	adrp	x16, 11000 <fwrite@plt+0x4110>
    cbb4:	f942ee11 	ldr	x17, [x16, #1496]
    cbb8:	91176210 	add	x16, x16, #0x5d8
    cbbc:	d61f0220 	br	x17

000000000000cbc0 <getuid@plt>:
    cbc0:	b0000030 	adrp	x16, 11000 <fwrite@plt+0x4110>
    cbc4:	f942f211 	ldr	x17, [x16, #1504]
    cbc8:	91178210 	add	x16, x16, #0x5e0
    cbcc:	d61f0220 	br	x17

000000000000cbd0 <_ZN11CommandLineC1Ev@plt>:
    cbd0:	b0000030 	adrp	x16, 11000 <fwrite@plt+0x4110>
    cbd4:	f942f611 	ldr	x17, [x16, #1512]
    cbd8:	9117a210 	add	x16, x16, #0x5e8
    cbdc:	d61f0220 	br	x17

000000000000cbe0 <_Z16ParseCommandLineR11CommandLine7APT_CMDPKP13ConfigurationPP9pkgSystemiPPKcPFbS0_EPFNSt6__ndk16vectorI19aptDispatchWithHelpNSE_9allocatorISG_EEEEvE@plt>:
    cbe0:	b0000030 	adrp	x16, 11000 <fwrite@plt+0x4110>
    cbe4:	f942fa11 	ldr	x17, [x16, #1520]
    cbe8:	9117c210 	add	x16, x16, #0x5f0
    cbec:	d61f0220 	br	x17

000000000000cbf0 <_ZNK13Configuration5FindIEPKcRKi@plt>:
    cbf0:	b0000030 	adrp	x16, 11000 <fwrite@plt+0x4110>
    cbf4:	f942fe11 	ldr	x17, [x16, #1528]
    cbf8:	9117e210 	add	x16, x16, #0x5f8
    cbfc:	d61f0220 	br	x17

000000000000cc00 <_ZN13Configuration6CndSetEPKci@plt>:
    cc00:	b0000030 	adrp	x16, 11000 <fwrite@plt+0x4110>
    cc04:	f9430211 	ldr	x17, [x16, #1536]
    cc08:	91180210 	add	x16, x16, #0x600
    cc0c:	d61f0220 	br	x17

000000000000cc10 <_ZN13Configuration3SetEPKcRKi@plt>:
    cc10:	b0000030 	adrp	x16, 11000 <fwrite@plt+0x4110>
    cc14:	f9430611 	ldr	x17, [x16, #1544]
    cc18:	91182210 	add	x16, x16, #0x608
    cc1c:	d61f0220 	br	x17

000000000000cc20 <_Z11InitSignalsv@plt>:
    cc20:	b0000030 	adrp	x16, 11000 <fwrite@plt+0x4110>
    cc24:	f9430a11 	ldr	x17, [x16, #1552]
    cc28:	91184210 	add	x16, x16, #0x610
    cc2c:	d61f0220 	br	x17

000000000000cc30 <_Z10InitOutputPNSt6__ndk115basic_streambufIcNS_11char_traitsIcEEEE@plt>:
    cc30:	b0000030 	adrp	x16, 11000 <fwrite@plt+0x4110>
    cc34:	f9430e11 	ldr	x17, [x16, #1560]
    cc38:	91186210 	add	x16, x16, #0x618
    cc3c:	d61f0220 	br	x17

000000000000cc40 <_Z21CheckIfCalledByScriptiPPKc@plt>:
    cc40:	b0000030 	adrp	x16, 11000 <fwrite@plt+0x4110>
    cc44:	f9431211 	ldr	x17, [x16, #1568]
    cc48:	91188210 	add	x16, x16, #0x620
    cc4c:	d61f0220 	br	x17

000000000000cc50 <_Z19CheckIfSimulateModeR11CommandLine@plt>:
    cc50:	b0000030 	adrp	x16, 11000 <fwrite@plt+0x4110>
    cc54:	f9431611 	ldr	x17, [x16, #1576]
    cc58:	9118a210 	add	x16, x16, #0x628
    cc5c:	d61f0220 	br	x17

000000000000cc60 <_Z19DispatchCommandLineR11CommandLineRKNSt6__ndk16vectorINS_8DispatchENS1_9allocatorIS3_EEEE@plt>:
    cc60:	b0000030 	adrp	x16, 11000 <fwrite@plt+0x4110>
    cc64:	f9431a11 	ldr	x17, [x16, #1584]
    cc68:	9118c210 	add	x16, x16, #0x630
    cc6c:	d61f0220 	br	x17

000000000000cc70 <_ZdlPvm@plt>:
    cc70:	b0000030 	adrp	x16, 11000 <fwrite@plt+0x4110>
    cc74:	f9431e11 	ldr	x17, [x16, #1592]
    cc78:	9118e210 	add	x16, x16, #0x638
    cc7c:	d61f0220 	br	x17

000000000000cc80 <_ZN11CommandLineD1Ev@plt>:
    cc80:	b0000030 	adrp	x16, 11000 <fwrite@plt+0x4110>
    cc84:	f9432211 	ldr	x17, [x16, #1600]
    cc88:	91190210 	add	x16, x16, #0x640
    cc8c:	d61f0220 	br	x17

000000000000cc90 <_ZNKSt6__ndk18ios_base6getlocEv@plt>:
    cc90:	b0000030 	adrp	x16, 11000 <fwrite@plt+0x4110>
    cc94:	f9432611 	ldr	x17, [x16, #1608]
    cc98:	91192210 	add	x16, x16, #0x648
    cc9c:	d61f0220 	br	x17

000000000000cca0 <_ZNKSt6__ndk16locale9use_facetERNS0_2idE@plt>:
    cca0:	b0000030 	adrp	x16, 11000 <fwrite@plt+0x4110>
    cca4:	f9432a11 	ldr	x17, [x16, #1616]
    cca8:	91194210 	add	x16, x16, #0x650
    ccac:	d61f0220 	br	x17

000000000000ccb0 <_ZNSt6__ndk16localeD1Ev@plt>:
    ccb0:	b0000030 	adrp	x16, 11000 <fwrite@plt+0x4110>
    ccb4:	f9432e11 	ldr	x17, [x16, #1624]
    ccb8:	91196210 	add	x16, x16, #0x658
    ccbc:	d61f0220 	br	x17

000000000000ccc0 <_ZNSt6__ndk113basic_ostreamIcNS_11char_traitsIcEEE3putEc@plt>:
    ccc0:	b0000030 	adrp	x16, 11000 <fwrite@plt+0x4110>
    ccc4:	f9433211 	ldr	x17, [x16, #1632]
    ccc8:	91198210 	add	x16, x16, #0x660
    cccc:	d61f0220 	br	x17

000000000000ccd0 <_ZNSt6__ndk113basic_ostreamIcNS_11char_traitsIcEEE5flushEv@plt>:
    ccd0:	b0000030 	adrp	x16, 11000 <fwrite@plt+0x4110>
    ccd4:	f9433611 	ldr	x17, [x16, #1640]
    ccd8:	9119a210 	add	x16, x16, #0x668
    ccdc:	d61f0220 	br	x17

000000000000cce0 <__stack_chk_fail@plt>:
    cce0:	b0000030 	adrp	x16, 11000 <fwrite@plt+0x4110>
    cce4:	f9433a11 	ldr	x17, [x16, #1648]
    cce8:	9119c210 	add	x16, x16, #0x670
    ccec:	d61f0220 	br	x17

000000000000ccf0 <_Znwm@plt>:
    ccf0:	b0000030 	adrp	x16, 11000 <fwrite@plt+0x4110>
    ccf4:	f9433e11 	ldr	x17, [x16, #1656]
    ccf8:	9119e210 	add	x16, x16, #0x678
    ccfc:	d61f0220 	br	x17

000000000000cd00 <memcpy@plt>:
    cd00:	b0000030 	adrp	x16, 11000 <fwrite@plt+0x4110>
    cd04:	f9434211 	ldr	x17, [x16, #1664]
    cd08:	911a0210 	add	x16, x16, #0x680
    cd0c:	d61f0220 	br	x17

000000000000cd10 <_ZN12pkgCacheFileC1Ev@plt>:
    cd10:	b0000030 	adrp	x16, 11000 <fwrite@plt+0x4110>
    cd14:	f9434611 	ldr	x17, [x16, #1672]
    cd18:	911a2210 	add	x16, x16, #0x688
    cd1c:	d61f0220 	br	x17

000000000000cd20 <_ZN3APT14CacheSetHelperC1EbN11GlobalError7MsgTypeE@plt>:
    cd20:	b0000030 	adrp	x16, 11000 <fwrite@plt+0x4110>
    cd24:	f9434a11 	ldr	x17, [x16, #1680]
    cd28:	911a4210 	add	x16, x16, #0x690
    cd2c:	d61f0220 	br	x17

000000000000cd30 <_ZN3APT25PackageContainerInterfaceC2ENS_14CacheSetHelper11PkgSelectorE@plt>:
    cd30:	b0000030 	adrp	x16, 11000 <fwrite@plt+0x4110>
    cd34:	f9434e11 	ldr	x17, [x16, #1688]
    cd38:	911a6210 	add	x16, x16, #0x698
    cd3c:	d61f0220 	br	x17

000000000000cd40 <_ZN3APT14CacheSetHelperD1Ev@plt>:
    cd40:	b0000030 	adrp	x16, 11000 <fwrite@plt+0x4110>
    cd44:	f9435211 	ldr	x17, [x16, #1696]
    cd48:	911a8210 	add	x16, x16, #0x6a0
    cd4c:	d61f0220 	br	x17

000000000000cd50 <strcmp@plt>:
    cd50:	b0000030 	adrp	x16, 11000 <fwrite@plt+0x4110>
    cd54:	f9435611 	ldr	x17, [x16, #1704]
    cd58:	911aa210 	add	x16, x16, #0x6a8
    cd5c:	d61f0220 	br	x17

000000000000cd60 <_ZN12pkgCacheFile13BuildDepCacheEP10OpProgress@plt>:
    cd60:	b0000030 	adrp	x16, 11000 <fwrite@plt+0x4110>
    cd64:	f9435a11 	ldr	x17, [x16, #1712]
    cd68:	911ac210 	add	x16, x16, #0x6b0
    cd6c:	d61f0220 	br	x17

000000000000cd70 <_ZN3APT6Solver16DependencySolver14InternalCliWhyER11pkgDepCacheN8pkgCache11PkgIteratorEb@plt>:
    cd70:	b0000030 	adrp	x16, 11000 <fwrite@plt+0x4110>
    cd74:	f9435e11 	ldr	x17, [x16, #1720]
    cd78:	911ae210 	add	x16, x16, #0x6b8
    cd7c:	d61f0220 	br	x17

000000000000cd80 <_Z12_GetErrorObjv@plt>:
    cd80:	b0000030 	adrp	x16, 11000 <fwrite@plt+0x4110>
    cd84:	f9436211 	ldr	x17, [x16, #1728]
    cd88:	911b0210 	add	x16, x16, #0x6c0
    cd8c:	d61f0220 	br	x17

000000000000cd90 <_ZN11GlobalError5ErrorEPKcz@plt>:
    cd90:	b0000030 	adrp	x16, 11000 <fwrite@plt+0x4110>
    cd94:	f9436611 	ldr	x17, [x16, #1736]
    cd98:	911b2210 	add	x16, x16, #0x6c8
    cd9c:	d61f0220 	br	x17

000000000000cda0 <_ZN3APT25PackageContainerInterfaceD2Ev@plt>:
    cda0:	b0000030 	adrp	x16, 11000 <fwrite@plt+0x4110>
    cda4:	f9436a11 	ldr	x17, [x16, #1744]
    cda8:	911b4210 	add	x16, x16, #0x6d0
    cdac:	d61f0220 	br	x17

000000000000cdb0 <_ZN12pkgCacheFileD1Ev@plt>:
    cdb0:	b0000030 	adrp	x16, 11000 <fwrite@plt+0x4110>
    cdb4:	f9436e11 	ldr	x17, [x16, #1752]
    cdb8:	911b6210 	add	x16, x16, #0x6d8
    cdbc:	d61f0220 	br	x17

000000000000cdc0 <__cxa_begin_catch@plt>:
    cdc0:	b0000030 	adrp	x16, 11000 <fwrite@plt+0x4110>
    cdc4:	f9437211 	ldr	x17, [x16, #1760]
    cdc8:	911b8210 	add	x16, x16, #0x6e0
    cdcc:	d61f0220 	br	x17

000000000000cdd0 <_ZSt9terminatev@plt>:
    cdd0:	b0000030 	adrp	x16, 11000 <fwrite@plt+0x4110>
    cdd4:	f9437611 	ldr	x17, [x16, #1768]
    cdd8:	911ba210 	add	x16, x16, #0x6e8
    cddc:	d61f0220 	br	x17

000000000000cde0 <_ZNSt6__ndk113basic_ostreamIcNS_11char_traitsIcEEE6sentryC1ERS3_@plt>:
    cde0:	b0000030 	adrp	x16, 11000 <fwrite@plt+0x4110>
    cde4:	f9437a11 	ldr	x17, [x16, #1776]
    cde8:	911bc210 	add	x16, x16, #0x6f0
    cdec:	d61f0220 	br	x17

000000000000cdf0 <_ZNSt6__ndk18ios_base5clearEj@plt>:
    cdf0:	b0000030 	adrp	x16, 11000 <fwrite@plt+0x4110>
    cdf4:	f9437e11 	ldr	x17, [x16, #1784]
    cdf8:	911be210 	add	x16, x16, #0x6f8
    cdfc:	d61f0220 	br	x17

000000000000ce00 <_ZNSt6__ndk113basic_ostreamIcNS_11char_traitsIcEEE6sentryD1Ev@plt>:
    ce00:	b0000030 	adrp	x16, 11000 <fwrite@plt+0x4110>
    ce04:	f9438211 	ldr	x17, [x16, #1792]
    ce08:	911c0210 	add	x16, x16, #0x700
    ce0c:	d61f0220 	br	x17

000000000000ce10 <_ZNSt6__ndk18ios_base33__set_badbit_and_consider_rethrowEv@plt>:
    ce10:	b0000030 	adrp	x16, 11000 <fwrite@plt+0x4110>
    ce14:	f9438611 	ldr	x17, [x16, #1800]
    ce18:	911c2210 	add	x16, x16, #0x708
    ce1c:	d61f0220 	br	x17

000000000000ce20 <__cxa_end_catch@plt>:
    ce20:	b0000030 	adrp	x16, 11000 <fwrite@plt+0x4110>
    ce24:	f9438a11 	ldr	x17, [x16, #1808]
    ce28:	911c4210 	add	x16, x16, #0x710
    ce2c:	d61f0220 	br	x17

000000000000ce30 <memset@plt>:
    ce30:	b0000030 	adrp	x16, 11000 <fwrite@plt+0x4110>
    ce34:	f9438e11 	ldr	x17, [x16, #1816]
    ce38:	911c6210 	add	x16, x16, #0x718
    ce3c:	d61f0220 	br	x17

000000000000ce40 <fprintf@plt>:
    ce40:	b0000030 	adrp	x16, 11000 <fwrite@plt+0x4110>
    ce44:	f9439211 	ldr	x17, [x16, #1824]
    ce48:	911c8210 	add	x16, x16, #0x720
    ce4c:	d61f0220 	br	x17

000000000000ce50 <fflush@plt>:
    ce50:	b0000030 	adrp	x16, 11000 <fwrite@plt+0x4110>
    ce54:	f9439611 	ldr	x17, [x16, #1832]
    ce58:	911ca210 	add	x16, x16, #0x728
    ce5c:	d61f0220 	br	x17

000000000000ce60 <abort@plt>:
    ce60:	b0000030 	adrp	x16, 11000 <fwrite@plt+0x4110>
    ce64:	f9439a11 	ldr	x17, [x16, #1840]
    ce68:	911cc210 	add	x16, x16, #0x730
    ce6c:	d61f0220 	br	x17

000000000000ce70 <pthread_rwlock_wrlock@plt>:
    ce70:	b0000030 	adrp	x16, 11000 <fwrite@plt+0x4110>
    ce74:	f9439e11 	ldr	x17, [x16, #1848]
    ce78:	911ce210 	add	x16, x16, #0x738
    ce7c:	d61f0220 	br	x17

000000000000ce80 <pthread_rwlock_unlock@plt>:
    ce80:	b0000030 	adrp	x16, 11000 <fwrite@plt+0x4110>
    ce84:	f943a211 	ldr	x17, [x16, #1856]
    ce88:	911d0210 	add	x16, x16, #0x740
    ce8c:	d61f0220 	br	x17

000000000000ce90 <malloc@plt>:
    ce90:	b0000030 	adrp	x16, 11000 <fwrite@plt+0x4110>
    ce94:	f943a611 	ldr	x17, [x16, #1864]
    ce98:	911d2210 	add	x16, x16, #0x748
    ce9c:	d61f0220 	br	x17

000000000000cea0 <free@plt>:
    cea0:	b0000030 	adrp	x16, 11000 <fwrite@plt+0x4110>
    cea4:	f943aa11 	ldr	x17, [x16, #1872]
    cea8:	911d4210 	add	x16, x16, #0x750
    ceac:	d61f0220 	br	x17

000000000000ceb0 <dl_iterate_phdr@plt>:
    ceb0:	b0000030 	adrp	x16, 11000 <fwrite@plt+0x4110>
    ceb4:	f943ae11 	ldr	x17, [x16, #1880]
    ceb8:	911d6210 	add	x16, x16, #0x758
    cebc:	d61f0220 	br	x17

000000000000cec0 <pthread_rwlock_rdlock@plt>:
    cec0:	b0000030 	adrp	x16, 11000 <fwrite@plt+0x4110>
    cec4:	f943b211 	ldr	x17, [x16, #1888]
    cec8:	911d8210 	add	x16, x16, #0x760
    cecc:	d61f0220 	br	x17

000000000000ced0 <__errno@plt>:
    ced0:	b0000030 	adrp	x16, 11000 <fwrite@plt+0x4110>
    ced4:	f943b611 	ldr	x17, [x16, #1896]
    ced8:	911da210 	add	x16, x16, #0x768
    cedc:	d61f0220 	br	x17

000000000000cee0 <syscall@plt>:
    cee0:	b0000030 	adrp	x16, 11000 <fwrite@plt+0x4110>
    cee4:	f943ba11 	ldr	x17, [x16, #1904]
    cee8:	911dc210 	add	x16, x16, #0x770
    ceec:	d61f0220 	br	x17

000000000000cef0 <fwrite@plt>:
    cef0:	b0000030 	adrp	x16, 11000 <fwrite@plt+0x4110>
    cef4:	f943be11 	ldr	x17, [x16, #1912]
    cef8:	911de210 	add	x16, x16, #0x778
    cefc:	d61f0220 	br	x17
